ARM GAS  /tmp/ccOFgnnN.s 			page 1


   1              		.cpu cortex-m0
   2              		.eabi_attribute 20, 1
   3              		.eabi_attribute 21, 1
   4              		.eabi_attribute 23, 3
   5              		.eabi_attribute 24, 1
   6              		.eabi_attribute 25, 1
   7              		.eabi_attribute 26, 1
   8              		.eabi_attribute 30, 6
   9              		.eabi_attribute 34, 0
  10              		.eabi_attribute 18, 4
  11              		.file	"main.cpp"
  12              		.text
  13              	.Ltext0:
  14              		.cfi_sections	.debug_frame
  15              		.section	.text.NVIC_EnableIRQ,"ax",%progbits
  16              		.align	1
  17              		.arch armv6s-m
  18              		.syntax unified
  19              		.code	16
  20              		.thumb_func
  21              		.fpu softvfp
  23              	NVIC_EnableIRQ:
  24              	.LFB45:
  25              		.file 1 "mculib/STM32F0_files/CMSIS/core_cm0.h"
   1:mculib/STM32F0_files/CMSIS/core_cm0.h **** /**************************************************************************//**
   2:mculib/STM32F0_files/CMSIS/core_cm0.h ****  * @file     core_cm0.h
   3:mculib/STM32F0_files/CMSIS/core_cm0.h ****  * @brief    CMSIS Cortex-M0 Core Peripheral Access Layer Header File
   4:mculib/STM32F0_files/CMSIS/core_cm0.h ****  * @version  V4.30
   5:mculib/STM32F0_files/CMSIS/core_cm0.h ****  * @date     20. October 2015
   6:mculib/STM32F0_files/CMSIS/core_cm0.h ****  ******************************************************************************/
   7:mculib/STM32F0_files/CMSIS/core_cm0.h **** /* Copyright (c) 2009 - 2015 ARM LIMITED
   8:mculib/STM32F0_files/CMSIS/core_cm0.h **** 
   9:mculib/STM32F0_files/CMSIS/core_cm0.h ****    All rights reserved.
  10:mculib/STM32F0_files/CMSIS/core_cm0.h ****    Redistribution and use in source and binary forms, with or without
  11:mculib/STM32F0_files/CMSIS/core_cm0.h ****    modification, are permitted provided that the following conditions are met:
  12:mculib/STM32F0_files/CMSIS/core_cm0.h ****    - Redistributions of source code must retain the above copyright
  13:mculib/STM32F0_files/CMSIS/core_cm0.h ****      notice, this list of conditions and the following disclaimer.
  14:mculib/STM32F0_files/CMSIS/core_cm0.h ****    - Redistributions in binary form must reproduce the above copyright
  15:mculib/STM32F0_files/CMSIS/core_cm0.h ****      notice, this list of conditions and the following disclaimer in the
  16:mculib/STM32F0_files/CMSIS/core_cm0.h ****      documentation and/or other materials provided with the distribution.
  17:mculib/STM32F0_files/CMSIS/core_cm0.h ****    - Neither the name of ARM nor the names of its contributors may be used
  18:mculib/STM32F0_files/CMSIS/core_cm0.h ****      to endorse or promote products derived from this software without
  19:mculib/STM32F0_files/CMSIS/core_cm0.h ****      specific prior written permission.
  20:mculib/STM32F0_files/CMSIS/core_cm0.h ****    *
  21:mculib/STM32F0_files/CMSIS/core_cm0.h ****    THIS SOFTWARE IS PROVIDED BY THE COPYRIGHT HOLDERS AND CONTRIBUTORS "AS IS"
  22:mculib/STM32F0_files/CMSIS/core_cm0.h ****    AND ANY EXPRESS OR IMPLIED WARRANTIES, INCLUDING, BUT NOT LIMITED TO, THE
  23:mculib/STM32F0_files/CMSIS/core_cm0.h ****    IMPLIED WARRANTIES OF MERCHANTABILITY AND FITNESS FOR A PARTICULAR PURPOSE
  24:mculib/STM32F0_files/CMSIS/core_cm0.h ****    ARE DISCLAIMED. IN NO EVENT SHALL COPYRIGHT HOLDERS AND CONTRIBUTORS BE
  25:mculib/STM32F0_files/CMSIS/core_cm0.h ****    LIABLE FOR ANY DIRECT, INDIRECT, INCIDENTAL, SPECIAL, EXEMPLARY, OR
  26:mculib/STM32F0_files/CMSIS/core_cm0.h ****    CONSEQUENTIAL DAMAGES (INCLUDING, BUT NOT LIMITED TO, PROCUREMENT OF
  27:mculib/STM32F0_files/CMSIS/core_cm0.h ****    SUBSTITUTE GOODS OR SERVICES; LOSS OF USE, DATA, OR PROFITS; OR BUSINESS
  28:mculib/STM32F0_files/CMSIS/core_cm0.h ****    INTERRUPTION) HOWEVER CAUSED AND ON ANY THEORY OF LIABILITY, WHETHER IN
  29:mculib/STM32F0_files/CMSIS/core_cm0.h ****    CONTRACT, STRICT LIABILITY, OR TORT (INCLUDING NEGLIGENCE OR OTHERWISE)
  30:mculib/STM32F0_files/CMSIS/core_cm0.h ****    ARISING IN ANY WAY OUT OF THE USE OF THIS SOFTWARE, EVEN IF ADVISED OF THE
  31:mculib/STM32F0_files/CMSIS/core_cm0.h ****    POSSIBILITY OF SUCH DAMAGE.
  32:mculib/STM32F0_files/CMSIS/core_cm0.h ****    ---------------------------------------------------------------------------*/
  33:mculib/STM32F0_files/CMSIS/core_cm0.h **** 
ARM GAS  /tmp/ccOFgnnN.s 			page 2


  34:mculib/STM32F0_files/CMSIS/core_cm0.h **** 
  35:mculib/STM32F0_files/CMSIS/core_cm0.h **** #if   defined ( __ICCARM__ )
  36:mculib/STM32F0_files/CMSIS/core_cm0.h ****  #pragma system_include         /* treat file as system include file for MISRA check */
  37:mculib/STM32F0_files/CMSIS/core_cm0.h **** #elif defined(__ARMCC_VERSION) && (__ARMCC_VERSION >= 6010050)
  38:mculib/STM32F0_files/CMSIS/core_cm0.h ****   #pragma clang system_header   /* treat file as system include file */
  39:mculib/STM32F0_files/CMSIS/core_cm0.h **** #endif
  40:mculib/STM32F0_files/CMSIS/core_cm0.h **** 
  41:mculib/STM32F0_files/CMSIS/core_cm0.h **** #ifndef __CORE_CM0_H_GENERIC
  42:mculib/STM32F0_files/CMSIS/core_cm0.h **** #define __CORE_CM0_H_GENERIC
  43:mculib/STM32F0_files/CMSIS/core_cm0.h **** 
  44:mculib/STM32F0_files/CMSIS/core_cm0.h **** #include <stdint.h>
  45:mculib/STM32F0_files/CMSIS/core_cm0.h **** 
  46:mculib/STM32F0_files/CMSIS/core_cm0.h **** #ifdef __cplusplus
  47:mculib/STM32F0_files/CMSIS/core_cm0.h ****  extern "C" {
  48:mculib/STM32F0_files/CMSIS/core_cm0.h **** #endif
  49:mculib/STM32F0_files/CMSIS/core_cm0.h **** 
  50:mculib/STM32F0_files/CMSIS/core_cm0.h **** /**
  51:mculib/STM32F0_files/CMSIS/core_cm0.h ****   \page CMSIS_MISRA_Exceptions  MISRA-C:2004 Compliance Exceptions
  52:mculib/STM32F0_files/CMSIS/core_cm0.h ****   CMSIS violates the following MISRA-C:2004 rules:
  53:mculib/STM32F0_files/CMSIS/core_cm0.h **** 
  54:mculib/STM32F0_files/CMSIS/core_cm0.h ****    \li Required Rule 8.5, object/function definition in header file.<br>
  55:mculib/STM32F0_files/CMSIS/core_cm0.h ****      Function definitions in header files are used to allow 'inlining'.
  56:mculib/STM32F0_files/CMSIS/core_cm0.h **** 
  57:mculib/STM32F0_files/CMSIS/core_cm0.h ****    \li Required Rule 18.4, declaration of union type or object of union type: '{...}'.<br>
  58:mculib/STM32F0_files/CMSIS/core_cm0.h ****      Unions are used for effective representation of core registers.
  59:mculib/STM32F0_files/CMSIS/core_cm0.h **** 
  60:mculib/STM32F0_files/CMSIS/core_cm0.h ****    \li Advisory Rule 19.7, Function-like macro defined.<br>
  61:mculib/STM32F0_files/CMSIS/core_cm0.h ****      Function-like macros are used to allow more efficient code.
  62:mculib/STM32F0_files/CMSIS/core_cm0.h ****  */
  63:mculib/STM32F0_files/CMSIS/core_cm0.h **** 
  64:mculib/STM32F0_files/CMSIS/core_cm0.h **** 
  65:mculib/STM32F0_files/CMSIS/core_cm0.h **** /*******************************************************************************
  66:mculib/STM32F0_files/CMSIS/core_cm0.h ****  *                 CMSIS definitions
  67:mculib/STM32F0_files/CMSIS/core_cm0.h ****  ******************************************************************************/
  68:mculib/STM32F0_files/CMSIS/core_cm0.h **** /**
  69:mculib/STM32F0_files/CMSIS/core_cm0.h ****   \ingroup Cortex_M0
  70:mculib/STM32F0_files/CMSIS/core_cm0.h ****   @{
  71:mculib/STM32F0_files/CMSIS/core_cm0.h ****  */
  72:mculib/STM32F0_files/CMSIS/core_cm0.h **** 
  73:mculib/STM32F0_files/CMSIS/core_cm0.h **** /*  CMSIS CM0 definitions */
  74:mculib/STM32F0_files/CMSIS/core_cm0.h **** #define __CM0_CMSIS_VERSION_MAIN  (0x04U)                                      /*!< [31:16] CMSIS H
  75:mculib/STM32F0_files/CMSIS/core_cm0.h **** #define __CM0_CMSIS_VERSION_SUB   (0x1EU)                                      /*!< [15:0]  CMSIS H
  76:mculib/STM32F0_files/CMSIS/core_cm0.h **** #define __CM0_CMSIS_VERSION       ((__CM0_CMSIS_VERSION_MAIN << 16U) | \
  77:mculib/STM32F0_files/CMSIS/core_cm0.h ****                                     __CM0_CMSIS_VERSION_SUB           )        /*!< CMSIS HAL versi
  78:mculib/STM32F0_files/CMSIS/core_cm0.h **** 
  79:mculib/STM32F0_files/CMSIS/core_cm0.h **** #define __CORTEX_M                (0x00U)                                      /*!< Cortex-M Core *
  80:mculib/STM32F0_files/CMSIS/core_cm0.h **** 
  81:mculib/STM32F0_files/CMSIS/core_cm0.h **** 
  82:mculib/STM32F0_files/CMSIS/core_cm0.h **** #if   defined ( __CC_ARM )
  83:mculib/STM32F0_files/CMSIS/core_cm0.h ****   #define __ASM            __asm                                      /*!< asm keyword for ARM Comp
  84:mculib/STM32F0_files/CMSIS/core_cm0.h ****   #define __INLINE         __inline                                   /*!< inline keyword for ARM C
  85:mculib/STM32F0_files/CMSIS/core_cm0.h ****   #define __STATIC_INLINE  static __inline
  86:mculib/STM32F0_files/CMSIS/core_cm0.h **** 
  87:mculib/STM32F0_files/CMSIS/core_cm0.h **** #elif defined(__ARMCC_VERSION) && (__ARMCC_VERSION >= 6010050)
  88:mculib/STM32F0_files/CMSIS/core_cm0.h ****   #define __ASM            __asm                                      /*!< asm keyword for ARM Comp
  89:mculib/STM32F0_files/CMSIS/core_cm0.h ****   #define __INLINE         __inline                                   /*!< inline keyword for ARM C
  90:mculib/STM32F0_files/CMSIS/core_cm0.h ****   #define __STATIC_INLINE  static __inline
ARM GAS  /tmp/ccOFgnnN.s 			page 3


  91:mculib/STM32F0_files/CMSIS/core_cm0.h **** 
  92:mculib/STM32F0_files/CMSIS/core_cm0.h **** #elif defined ( __GNUC__ )
  93:mculib/STM32F0_files/CMSIS/core_cm0.h ****   #define __ASM            __asm                                      /*!< asm keyword for GNU Comp
  94:mculib/STM32F0_files/CMSIS/core_cm0.h ****   #define __INLINE         inline                                     /*!< inline keyword for GNU C
  95:mculib/STM32F0_files/CMSIS/core_cm0.h ****   #define __STATIC_INLINE  static inline
  96:mculib/STM32F0_files/CMSIS/core_cm0.h **** 
  97:mculib/STM32F0_files/CMSIS/core_cm0.h **** #elif defined ( __ICCARM__ )
  98:mculib/STM32F0_files/CMSIS/core_cm0.h ****   #define __ASM            __asm                                      /*!< asm keyword for IAR Comp
  99:mculib/STM32F0_files/CMSIS/core_cm0.h ****   #define __INLINE         inline                                     /*!< inline keyword for IAR C
 100:mculib/STM32F0_files/CMSIS/core_cm0.h ****   #define __STATIC_INLINE  static inline
 101:mculib/STM32F0_files/CMSIS/core_cm0.h **** 
 102:mculib/STM32F0_files/CMSIS/core_cm0.h **** #elif defined ( __TMS470__ )
 103:mculib/STM32F0_files/CMSIS/core_cm0.h ****   #define __ASM            __asm                                      /*!< asm keyword for TI CCS C
 104:mculib/STM32F0_files/CMSIS/core_cm0.h ****   #define __STATIC_INLINE  static inline
 105:mculib/STM32F0_files/CMSIS/core_cm0.h **** 
 106:mculib/STM32F0_files/CMSIS/core_cm0.h **** #elif defined ( __TASKING__ )
 107:mculib/STM32F0_files/CMSIS/core_cm0.h ****   #define __ASM            __asm                                      /*!< asm keyword for TASKING 
 108:mculib/STM32F0_files/CMSIS/core_cm0.h ****   #define __INLINE         inline                                     /*!< inline keyword for TASKI
 109:mculib/STM32F0_files/CMSIS/core_cm0.h ****   #define __STATIC_INLINE  static inline
 110:mculib/STM32F0_files/CMSIS/core_cm0.h **** 
 111:mculib/STM32F0_files/CMSIS/core_cm0.h **** #elif defined ( __CSMC__ )
 112:mculib/STM32F0_files/CMSIS/core_cm0.h ****   #define __packed
 113:mculib/STM32F0_files/CMSIS/core_cm0.h ****   #define __ASM            _asm                                      /*!< asm keyword for COSMIC Co
 114:mculib/STM32F0_files/CMSIS/core_cm0.h ****   #define __INLINE         inline                                    /*!< inline keyword for COSMIC
 115:mculib/STM32F0_files/CMSIS/core_cm0.h ****   #define __STATIC_INLINE  static inline
 116:mculib/STM32F0_files/CMSIS/core_cm0.h **** 
 117:mculib/STM32F0_files/CMSIS/core_cm0.h **** #else
 118:mculib/STM32F0_files/CMSIS/core_cm0.h ****   #error Unknown compiler
 119:mculib/STM32F0_files/CMSIS/core_cm0.h **** #endif
 120:mculib/STM32F0_files/CMSIS/core_cm0.h **** 
 121:mculib/STM32F0_files/CMSIS/core_cm0.h **** /** __FPU_USED indicates whether an FPU is used or not.
 122:mculib/STM32F0_files/CMSIS/core_cm0.h ****     This core does not support an FPU at all
 123:mculib/STM32F0_files/CMSIS/core_cm0.h **** */
 124:mculib/STM32F0_files/CMSIS/core_cm0.h **** #define __FPU_USED       0U
 125:mculib/STM32F0_files/CMSIS/core_cm0.h **** 
 126:mculib/STM32F0_files/CMSIS/core_cm0.h **** #if defined ( __CC_ARM )
 127:mculib/STM32F0_files/CMSIS/core_cm0.h ****   #if defined __TARGET_FPU_VFP
 128:mculib/STM32F0_files/CMSIS/core_cm0.h ****     #error "Compiler generates FPU instructions for a device without an FPU (check __FPU_PRESENT)"
 129:mculib/STM32F0_files/CMSIS/core_cm0.h ****   #endif
 130:mculib/STM32F0_files/CMSIS/core_cm0.h **** 
 131:mculib/STM32F0_files/CMSIS/core_cm0.h **** #elif defined(__ARMCC_VERSION) && (__ARMCC_VERSION >= 6010050)
 132:mculib/STM32F0_files/CMSIS/core_cm0.h ****   #if defined __ARM_PCS_VFP
 133:mculib/STM32F0_files/CMSIS/core_cm0.h ****     #error "Compiler generates FPU instructions for a device without an FPU (check __FPU_PRESENT)"
 134:mculib/STM32F0_files/CMSIS/core_cm0.h ****   #endif
 135:mculib/STM32F0_files/CMSIS/core_cm0.h **** 
 136:mculib/STM32F0_files/CMSIS/core_cm0.h **** #elif defined ( __GNUC__ )
 137:mculib/STM32F0_files/CMSIS/core_cm0.h ****   #if defined (__VFP_FP__) && !defined(__SOFTFP__)
 138:mculib/STM32F0_files/CMSIS/core_cm0.h ****     #error "Compiler generates FPU instructions for a device without an FPU (check __FPU_PRESENT)"
 139:mculib/STM32F0_files/CMSIS/core_cm0.h ****   #endif
 140:mculib/STM32F0_files/CMSIS/core_cm0.h **** 
 141:mculib/STM32F0_files/CMSIS/core_cm0.h **** #elif defined ( __ICCARM__ )
 142:mculib/STM32F0_files/CMSIS/core_cm0.h ****   #if defined __ARMVFP__
 143:mculib/STM32F0_files/CMSIS/core_cm0.h ****     #error "Compiler generates FPU instructions for a device without an FPU (check __FPU_PRESENT)"
 144:mculib/STM32F0_files/CMSIS/core_cm0.h ****   #endif
 145:mculib/STM32F0_files/CMSIS/core_cm0.h **** 
 146:mculib/STM32F0_files/CMSIS/core_cm0.h **** #elif defined ( __TMS470__ )
 147:mculib/STM32F0_files/CMSIS/core_cm0.h ****   #if defined __TI_VFP_SUPPORT__
ARM GAS  /tmp/ccOFgnnN.s 			page 4


 148:mculib/STM32F0_files/CMSIS/core_cm0.h ****     #error "Compiler generates FPU instructions for a device without an FPU (check __FPU_PRESENT)"
 149:mculib/STM32F0_files/CMSIS/core_cm0.h ****   #endif
 150:mculib/STM32F0_files/CMSIS/core_cm0.h **** 
 151:mculib/STM32F0_files/CMSIS/core_cm0.h **** #elif defined ( __TASKING__ )
 152:mculib/STM32F0_files/CMSIS/core_cm0.h ****   #if defined __FPU_VFP__
 153:mculib/STM32F0_files/CMSIS/core_cm0.h ****     #error "Compiler generates FPU instructions for a device without an FPU (check __FPU_PRESENT)"
 154:mculib/STM32F0_files/CMSIS/core_cm0.h ****   #endif
 155:mculib/STM32F0_files/CMSIS/core_cm0.h **** 
 156:mculib/STM32F0_files/CMSIS/core_cm0.h **** #elif defined ( __CSMC__ )
 157:mculib/STM32F0_files/CMSIS/core_cm0.h ****   #if ( __CSMC__ & 0x400U)
 158:mculib/STM32F0_files/CMSIS/core_cm0.h ****     #error "Compiler generates FPU instructions for a device without an FPU (check __FPU_PRESENT)"
 159:mculib/STM32F0_files/CMSIS/core_cm0.h ****   #endif
 160:mculib/STM32F0_files/CMSIS/core_cm0.h **** 
 161:mculib/STM32F0_files/CMSIS/core_cm0.h **** #endif
 162:mculib/STM32F0_files/CMSIS/core_cm0.h **** 
 163:mculib/STM32F0_files/CMSIS/core_cm0.h **** #include "core_cmInstr.h"                /* Core Instruction Access */
 164:mculib/STM32F0_files/CMSIS/core_cm0.h **** #include "core_cmFunc.h"                 /* Core Function Access */
 165:mculib/STM32F0_files/CMSIS/core_cm0.h **** 
 166:mculib/STM32F0_files/CMSIS/core_cm0.h **** #ifdef __cplusplus
 167:mculib/STM32F0_files/CMSIS/core_cm0.h **** }
 168:mculib/STM32F0_files/CMSIS/core_cm0.h **** #endif
 169:mculib/STM32F0_files/CMSIS/core_cm0.h **** 
 170:mculib/STM32F0_files/CMSIS/core_cm0.h **** #endif /* __CORE_CM0_H_GENERIC */
 171:mculib/STM32F0_files/CMSIS/core_cm0.h **** 
 172:mculib/STM32F0_files/CMSIS/core_cm0.h **** #ifndef __CMSIS_GENERIC
 173:mculib/STM32F0_files/CMSIS/core_cm0.h **** 
 174:mculib/STM32F0_files/CMSIS/core_cm0.h **** #ifndef __CORE_CM0_H_DEPENDANT
 175:mculib/STM32F0_files/CMSIS/core_cm0.h **** #define __CORE_CM0_H_DEPENDANT
 176:mculib/STM32F0_files/CMSIS/core_cm0.h **** 
 177:mculib/STM32F0_files/CMSIS/core_cm0.h **** #ifdef __cplusplus
 178:mculib/STM32F0_files/CMSIS/core_cm0.h ****  extern "C" {
 179:mculib/STM32F0_files/CMSIS/core_cm0.h **** #endif
 180:mculib/STM32F0_files/CMSIS/core_cm0.h **** 
 181:mculib/STM32F0_files/CMSIS/core_cm0.h **** /* check device defines and use defaults */
 182:mculib/STM32F0_files/CMSIS/core_cm0.h **** #if defined __CHECK_DEVICE_DEFINES
 183:mculib/STM32F0_files/CMSIS/core_cm0.h ****   #ifndef __CM0_REV
 184:mculib/STM32F0_files/CMSIS/core_cm0.h ****     #define __CM0_REV               0x0000U
 185:mculib/STM32F0_files/CMSIS/core_cm0.h ****     #warning "__CM0_REV not defined in device header file; using default!"
 186:mculib/STM32F0_files/CMSIS/core_cm0.h ****   #endif
 187:mculib/STM32F0_files/CMSIS/core_cm0.h **** 
 188:mculib/STM32F0_files/CMSIS/core_cm0.h ****   #ifndef __NVIC_PRIO_BITS
 189:mculib/STM32F0_files/CMSIS/core_cm0.h ****     #define __NVIC_PRIO_BITS          2U
 190:mculib/STM32F0_files/CMSIS/core_cm0.h ****     #warning "__NVIC_PRIO_BITS not defined in device header file; using default!"
 191:mculib/STM32F0_files/CMSIS/core_cm0.h ****   #endif
 192:mculib/STM32F0_files/CMSIS/core_cm0.h **** 
 193:mculib/STM32F0_files/CMSIS/core_cm0.h ****   #ifndef __Vendor_SysTickConfig
 194:mculib/STM32F0_files/CMSIS/core_cm0.h ****     #define __Vendor_SysTickConfig    0U
 195:mculib/STM32F0_files/CMSIS/core_cm0.h ****     #warning "__Vendor_SysTickConfig not defined in device header file; using default!"
 196:mculib/STM32F0_files/CMSIS/core_cm0.h ****   #endif
 197:mculib/STM32F0_files/CMSIS/core_cm0.h **** #endif
 198:mculib/STM32F0_files/CMSIS/core_cm0.h **** 
 199:mculib/STM32F0_files/CMSIS/core_cm0.h **** /* IO definitions (access restrictions to peripheral registers) */
 200:mculib/STM32F0_files/CMSIS/core_cm0.h **** /**
 201:mculib/STM32F0_files/CMSIS/core_cm0.h ****     \defgroup CMSIS_glob_defs CMSIS Global Defines
 202:mculib/STM32F0_files/CMSIS/core_cm0.h **** 
 203:mculib/STM32F0_files/CMSIS/core_cm0.h ****     <strong>IO Type Qualifiers</strong> are used
 204:mculib/STM32F0_files/CMSIS/core_cm0.h ****     \li to specify the access to peripheral variables.
ARM GAS  /tmp/ccOFgnnN.s 			page 5


 205:mculib/STM32F0_files/CMSIS/core_cm0.h ****     \li for automatic generation of peripheral register debug information.
 206:mculib/STM32F0_files/CMSIS/core_cm0.h **** */
 207:mculib/STM32F0_files/CMSIS/core_cm0.h **** #ifdef __cplusplus
 208:mculib/STM32F0_files/CMSIS/core_cm0.h ****   #define   __I     volatile             /*!< Defines 'read only' permissions */
 209:mculib/STM32F0_files/CMSIS/core_cm0.h **** #else
 210:mculib/STM32F0_files/CMSIS/core_cm0.h ****   #define   __I     volatile const       /*!< Defines 'read only' permissions */
 211:mculib/STM32F0_files/CMSIS/core_cm0.h **** #endif
 212:mculib/STM32F0_files/CMSIS/core_cm0.h **** #define     __O     volatile             /*!< Defines 'write only' permissions */
 213:mculib/STM32F0_files/CMSIS/core_cm0.h **** #define     __IO    volatile             /*!< Defines 'read / write' permissions */
 214:mculib/STM32F0_files/CMSIS/core_cm0.h **** 
 215:mculib/STM32F0_files/CMSIS/core_cm0.h **** /* following defines should be used for structure members */
 216:mculib/STM32F0_files/CMSIS/core_cm0.h **** #define     __IM     volatile const      /*! Defines 'read only' structure member permissions */
 217:mculib/STM32F0_files/CMSIS/core_cm0.h **** #define     __OM     volatile            /*! Defines 'write only' structure member permissions */
 218:mculib/STM32F0_files/CMSIS/core_cm0.h **** #define     __IOM    volatile            /*! Defines 'read / write' structure member permissions */
 219:mculib/STM32F0_files/CMSIS/core_cm0.h **** 
 220:mculib/STM32F0_files/CMSIS/core_cm0.h **** /*@} end of group Cortex_M0 */
 221:mculib/STM32F0_files/CMSIS/core_cm0.h **** 
 222:mculib/STM32F0_files/CMSIS/core_cm0.h **** 
 223:mculib/STM32F0_files/CMSIS/core_cm0.h **** 
 224:mculib/STM32F0_files/CMSIS/core_cm0.h **** /*******************************************************************************
 225:mculib/STM32F0_files/CMSIS/core_cm0.h ****  *                 Register Abstraction
 226:mculib/STM32F0_files/CMSIS/core_cm0.h ****   Core Register contain:
 227:mculib/STM32F0_files/CMSIS/core_cm0.h ****   - Core Register
 228:mculib/STM32F0_files/CMSIS/core_cm0.h ****   - Core NVIC Register
 229:mculib/STM32F0_files/CMSIS/core_cm0.h ****   - Core SCB Register
 230:mculib/STM32F0_files/CMSIS/core_cm0.h ****   - Core SysTick Register
 231:mculib/STM32F0_files/CMSIS/core_cm0.h ****  ******************************************************************************/
 232:mculib/STM32F0_files/CMSIS/core_cm0.h **** /**
 233:mculib/STM32F0_files/CMSIS/core_cm0.h ****   \defgroup CMSIS_core_register Defines and Type Definitions
 234:mculib/STM32F0_files/CMSIS/core_cm0.h ****   \brief Type definitions and defines for Cortex-M processor based devices.
 235:mculib/STM32F0_files/CMSIS/core_cm0.h **** */
 236:mculib/STM32F0_files/CMSIS/core_cm0.h **** 
 237:mculib/STM32F0_files/CMSIS/core_cm0.h **** /**
 238:mculib/STM32F0_files/CMSIS/core_cm0.h ****   \ingroup    CMSIS_core_register
 239:mculib/STM32F0_files/CMSIS/core_cm0.h ****   \defgroup   CMSIS_CORE  Status and Control Registers
 240:mculib/STM32F0_files/CMSIS/core_cm0.h ****   \brief      Core Register type definitions.
 241:mculib/STM32F0_files/CMSIS/core_cm0.h ****   @{
 242:mculib/STM32F0_files/CMSIS/core_cm0.h ****  */
 243:mculib/STM32F0_files/CMSIS/core_cm0.h **** 
 244:mculib/STM32F0_files/CMSIS/core_cm0.h **** /**
 245:mculib/STM32F0_files/CMSIS/core_cm0.h ****   \brief  Union type to access the Application Program Status Register (APSR).
 246:mculib/STM32F0_files/CMSIS/core_cm0.h ****  */
 247:mculib/STM32F0_files/CMSIS/core_cm0.h **** typedef union
 248:mculib/STM32F0_files/CMSIS/core_cm0.h **** {
 249:mculib/STM32F0_files/CMSIS/core_cm0.h ****   struct
 250:mculib/STM32F0_files/CMSIS/core_cm0.h ****   {
 251:mculib/STM32F0_files/CMSIS/core_cm0.h ****     uint32_t _reserved0:28;              /*!< bit:  0..27  Reserved */
 252:mculib/STM32F0_files/CMSIS/core_cm0.h ****     uint32_t V:1;                        /*!< bit:     28  Overflow condition code flag */
 253:mculib/STM32F0_files/CMSIS/core_cm0.h ****     uint32_t C:1;                        /*!< bit:     29  Carry condition code flag */
 254:mculib/STM32F0_files/CMSIS/core_cm0.h ****     uint32_t Z:1;                        /*!< bit:     30  Zero condition code flag */
 255:mculib/STM32F0_files/CMSIS/core_cm0.h ****     uint32_t N:1;                        /*!< bit:     31  Negative condition code flag */
 256:mculib/STM32F0_files/CMSIS/core_cm0.h ****   } b;                                   /*!< Structure used for bit  access */
 257:mculib/STM32F0_files/CMSIS/core_cm0.h ****   uint32_t w;                            /*!< Type      used for word access */
 258:mculib/STM32F0_files/CMSIS/core_cm0.h **** } APSR_Type;
 259:mculib/STM32F0_files/CMSIS/core_cm0.h **** 
 260:mculib/STM32F0_files/CMSIS/core_cm0.h **** /* APSR Register Definitions */
 261:mculib/STM32F0_files/CMSIS/core_cm0.h **** #define APSR_N_Pos                         31U                                            /*!< APSR
ARM GAS  /tmp/ccOFgnnN.s 			page 6


 262:mculib/STM32F0_files/CMSIS/core_cm0.h **** #define APSR_N_Msk                         (1UL << APSR_N_Pos)                            /*!< APSR
 263:mculib/STM32F0_files/CMSIS/core_cm0.h **** 
 264:mculib/STM32F0_files/CMSIS/core_cm0.h **** #define APSR_Z_Pos                         30U                                            /*!< APSR
 265:mculib/STM32F0_files/CMSIS/core_cm0.h **** #define APSR_Z_Msk                         (1UL << APSR_Z_Pos)                            /*!< APSR
 266:mculib/STM32F0_files/CMSIS/core_cm0.h **** 
 267:mculib/STM32F0_files/CMSIS/core_cm0.h **** #define APSR_C_Pos                         29U                                            /*!< APSR
 268:mculib/STM32F0_files/CMSIS/core_cm0.h **** #define APSR_C_Msk                         (1UL << APSR_C_Pos)                            /*!< APSR
 269:mculib/STM32F0_files/CMSIS/core_cm0.h **** 
 270:mculib/STM32F0_files/CMSIS/core_cm0.h **** #define APSR_V_Pos                         28U                                            /*!< APSR
 271:mculib/STM32F0_files/CMSIS/core_cm0.h **** #define APSR_V_Msk                         (1UL << APSR_V_Pos)                            /*!< APSR
 272:mculib/STM32F0_files/CMSIS/core_cm0.h **** 
 273:mculib/STM32F0_files/CMSIS/core_cm0.h **** 
 274:mculib/STM32F0_files/CMSIS/core_cm0.h **** /**
 275:mculib/STM32F0_files/CMSIS/core_cm0.h ****   \brief  Union type to access the Interrupt Program Status Register (IPSR).
 276:mculib/STM32F0_files/CMSIS/core_cm0.h ****  */
 277:mculib/STM32F0_files/CMSIS/core_cm0.h **** typedef union
 278:mculib/STM32F0_files/CMSIS/core_cm0.h **** {
 279:mculib/STM32F0_files/CMSIS/core_cm0.h ****   struct
 280:mculib/STM32F0_files/CMSIS/core_cm0.h ****   {
 281:mculib/STM32F0_files/CMSIS/core_cm0.h ****     uint32_t ISR:9;                      /*!< bit:  0.. 8  Exception number */
 282:mculib/STM32F0_files/CMSIS/core_cm0.h ****     uint32_t _reserved0:23;              /*!< bit:  9..31  Reserved */
 283:mculib/STM32F0_files/CMSIS/core_cm0.h ****   } b;                                   /*!< Structure used for bit  access */
 284:mculib/STM32F0_files/CMSIS/core_cm0.h ****   uint32_t w;                            /*!< Type      used for word access */
 285:mculib/STM32F0_files/CMSIS/core_cm0.h **** } IPSR_Type;
 286:mculib/STM32F0_files/CMSIS/core_cm0.h **** 
 287:mculib/STM32F0_files/CMSIS/core_cm0.h **** /* IPSR Register Definitions */
 288:mculib/STM32F0_files/CMSIS/core_cm0.h **** #define IPSR_ISR_Pos                        0U                                            /*!< IPSR
 289:mculib/STM32F0_files/CMSIS/core_cm0.h **** #define IPSR_ISR_Msk                       (0x1FFUL /*<< IPSR_ISR_Pos*/)                  /*!< IPSR
 290:mculib/STM32F0_files/CMSIS/core_cm0.h **** 
 291:mculib/STM32F0_files/CMSIS/core_cm0.h **** 
 292:mculib/STM32F0_files/CMSIS/core_cm0.h **** /**
 293:mculib/STM32F0_files/CMSIS/core_cm0.h ****   \brief  Union type to access the Special-Purpose Program Status Registers (xPSR).
 294:mculib/STM32F0_files/CMSIS/core_cm0.h ****  */
 295:mculib/STM32F0_files/CMSIS/core_cm0.h **** typedef union
 296:mculib/STM32F0_files/CMSIS/core_cm0.h **** {
 297:mculib/STM32F0_files/CMSIS/core_cm0.h ****   struct
 298:mculib/STM32F0_files/CMSIS/core_cm0.h ****   {
 299:mculib/STM32F0_files/CMSIS/core_cm0.h ****     uint32_t ISR:9;                      /*!< bit:  0.. 8  Exception number */
 300:mculib/STM32F0_files/CMSIS/core_cm0.h ****     uint32_t _reserved0:15;              /*!< bit:  9..23  Reserved */
 301:mculib/STM32F0_files/CMSIS/core_cm0.h ****     uint32_t T:1;                        /*!< bit:     24  Thumb bit        (read 0) */
 302:mculib/STM32F0_files/CMSIS/core_cm0.h ****     uint32_t _reserved1:3;               /*!< bit: 25..27  Reserved */
 303:mculib/STM32F0_files/CMSIS/core_cm0.h ****     uint32_t V:1;                        /*!< bit:     28  Overflow condition code flag */
 304:mculib/STM32F0_files/CMSIS/core_cm0.h ****     uint32_t C:1;                        /*!< bit:     29  Carry condition code flag */
 305:mculib/STM32F0_files/CMSIS/core_cm0.h ****     uint32_t Z:1;                        /*!< bit:     30  Zero condition code flag */
 306:mculib/STM32F0_files/CMSIS/core_cm0.h ****     uint32_t N:1;                        /*!< bit:     31  Negative condition code flag */
 307:mculib/STM32F0_files/CMSIS/core_cm0.h ****   } b;                                   /*!< Structure used for bit  access */
 308:mculib/STM32F0_files/CMSIS/core_cm0.h ****   uint32_t w;                            /*!< Type      used for word access */
 309:mculib/STM32F0_files/CMSIS/core_cm0.h **** } xPSR_Type;
 310:mculib/STM32F0_files/CMSIS/core_cm0.h **** 
 311:mculib/STM32F0_files/CMSIS/core_cm0.h **** /* xPSR Register Definitions */
 312:mculib/STM32F0_files/CMSIS/core_cm0.h **** #define xPSR_N_Pos                         31U                                            /*!< xPSR
 313:mculib/STM32F0_files/CMSIS/core_cm0.h **** #define xPSR_N_Msk                         (1UL << xPSR_N_Pos)                            /*!< xPSR
 314:mculib/STM32F0_files/CMSIS/core_cm0.h **** 
 315:mculib/STM32F0_files/CMSIS/core_cm0.h **** #define xPSR_Z_Pos                         30U                                            /*!< xPSR
 316:mculib/STM32F0_files/CMSIS/core_cm0.h **** #define xPSR_Z_Msk                         (1UL << xPSR_Z_Pos)                            /*!< xPSR
 317:mculib/STM32F0_files/CMSIS/core_cm0.h **** 
 318:mculib/STM32F0_files/CMSIS/core_cm0.h **** #define xPSR_C_Pos                         29U                                            /*!< xPSR
ARM GAS  /tmp/ccOFgnnN.s 			page 7


 319:mculib/STM32F0_files/CMSIS/core_cm0.h **** #define xPSR_C_Msk                         (1UL << xPSR_C_Pos)                            /*!< xPSR
 320:mculib/STM32F0_files/CMSIS/core_cm0.h **** 
 321:mculib/STM32F0_files/CMSIS/core_cm0.h **** #define xPSR_V_Pos                         28U                                            /*!< xPSR
 322:mculib/STM32F0_files/CMSIS/core_cm0.h **** #define xPSR_V_Msk                         (1UL << xPSR_V_Pos)                            /*!< xPSR
 323:mculib/STM32F0_files/CMSIS/core_cm0.h **** 
 324:mculib/STM32F0_files/CMSIS/core_cm0.h **** #define xPSR_T_Pos                         24U                                            /*!< xPSR
 325:mculib/STM32F0_files/CMSIS/core_cm0.h **** #define xPSR_T_Msk                         (1UL << xPSR_T_Pos)                            /*!< xPSR
 326:mculib/STM32F0_files/CMSIS/core_cm0.h **** 
 327:mculib/STM32F0_files/CMSIS/core_cm0.h **** #define xPSR_ISR_Pos                        0U                                            /*!< xPSR
 328:mculib/STM32F0_files/CMSIS/core_cm0.h **** #define xPSR_ISR_Msk                       (0x1FFUL /*<< xPSR_ISR_Pos*/)                  /*!< xPSR
 329:mculib/STM32F0_files/CMSIS/core_cm0.h **** 
 330:mculib/STM32F0_files/CMSIS/core_cm0.h **** 
 331:mculib/STM32F0_files/CMSIS/core_cm0.h **** /**
 332:mculib/STM32F0_files/CMSIS/core_cm0.h ****   \brief  Union type to access the Control Registers (CONTROL).
 333:mculib/STM32F0_files/CMSIS/core_cm0.h ****  */
 334:mculib/STM32F0_files/CMSIS/core_cm0.h **** typedef union
 335:mculib/STM32F0_files/CMSIS/core_cm0.h **** {
 336:mculib/STM32F0_files/CMSIS/core_cm0.h ****   struct
 337:mculib/STM32F0_files/CMSIS/core_cm0.h ****   {
 338:mculib/STM32F0_files/CMSIS/core_cm0.h ****     uint32_t _reserved0:1;               /*!< bit:      0  Reserved */
 339:mculib/STM32F0_files/CMSIS/core_cm0.h ****     uint32_t SPSEL:1;                    /*!< bit:      1  Stack to be used */
 340:mculib/STM32F0_files/CMSIS/core_cm0.h ****     uint32_t _reserved1:30;              /*!< bit:  2..31  Reserved */
 341:mculib/STM32F0_files/CMSIS/core_cm0.h ****   } b;                                   /*!< Structure used for bit  access */
 342:mculib/STM32F0_files/CMSIS/core_cm0.h ****   uint32_t w;                            /*!< Type      used for word access */
 343:mculib/STM32F0_files/CMSIS/core_cm0.h **** } CONTROL_Type;
 344:mculib/STM32F0_files/CMSIS/core_cm0.h **** 
 345:mculib/STM32F0_files/CMSIS/core_cm0.h **** /* CONTROL Register Definitions */
 346:mculib/STM32F0_files/CMSIS/core_cm0.h **** #define CONTROL_SPSEL_Pos                   1U                                            /*!< CONT
 347:mculib/STM32F0_files/CMSIS/core_cm0.h **** #define CONTROL_SPSEL_Msk                  (1UL << CONTROL_SPSEL_Pos)                     /*!< CONT
 348:mculib/STM32F0_files/CMSIS/core_cm0.h **** 
 349:mculib/STM32F0_files/CMSIS/core_cm0.h **** /*@} end of group CMSIS_CORE */
 350:mculib/STM32F0_files/CMSIS/core_cm0.h **** 
 351:mculib/STM32F0_files/CMSIS/core_cm0.h **** 
 352:mculib/STM32F0_files/CMSIS/core_cm0.h **** /**
 353:mculib/STM32F0_files/CMSIS/core_cm0.h ****   \ingroup    CMSIS_core_register
 354:mculib/STM32F0_files/CMSIS/core_cm0.h ****   \defgroup   CMSIS_NVIC  Nested Vectored Interrupt Controller (NVIC)
 355:mculib/STM32F0_files/CMSIS/core_cm0.h ****   \brief      Type definitions for the NVIC Registers
 356:mculib/STM32F0_files/CMSIS/core_cm0.h ****   @{
 357:mculib/STM32F0_files/CMSIS/core_cm0.h ****  */
 358:mculib/STM32F0_files/CMSIS/core_cm0.h **** 
 359:mculib/STM32F0_files/CMSIS/core_cm0.h **** /**
 360:mculib/STM32F0_files/CMSIS/core_cm0.h ****   \brief  Structure type to access the Nested Vectored Interrupt Controller (NVIC).
 361:mculib/STM32F0_files/CMSIS/core_cm0.h ****  */
 362:mculib/STM32F0_files/CMSIS/core_cm0.h **** typedef struct
 363:mculib/STM32F0_files/CMSIS/core_cm0.h **** {
 364:mculib/STM32F0_files/CMSIS/core_cm0.h ****   __IOM uint32_t ISER[1U];               /*!< Offset: 0x000 (R/W)  Interrupt Set Enable Register */
 365:mculib/STM32F0_files/CMSIS/core_cm0.h ****         uint32_t RESERVED0[31U];
 366:mculib/STM32F0_files/CMSIS/core_cm0.h ****   __IOM uint32_t ICER[1U];               /*!< Offset: 0x080 (R/W)  Interrupt Clear Enable Register 
 367:mculib/STM32F0_files/CMSIS/core_cm0.h ****         uint32_t RSERVED1[31U];
 368:mculib/STM32F0_files/CMSIS/core_cm0.h ****   __IOM uint32_t ISPR[1U];               /*!< Offset: 0x100 (R/W)  Interrupt Set Pending Register *
 369:mculib/STM32F0_files/CMSIS/core_cm0.h ****         uint32_t RESERVED2[31U];
 370:mculib/STM32F0_files/CMSIS/core_cm0.h ****   __IOM uint32_t ICPR[1U];               /*!< Offset: 0x180 (R/W)  Interrupt Clear Pending Register
 371:mculib/STM32F0_files/CMSIS/core_cm0.h ****         uint32_t RESERVED3[31U];
 372:mculib/STM32F0_files/CMSIS/core_cm0.h ****         uint32_t RESERVED4[64U];
 373:mculib/STM32F0_files/CMSIS/core_cm0.h ****   __IOM uint32_t IP[8U];                 /*!< Offset: 0x300 (R/W)  Interrupt Priority Register */
 374:mculib/STM32F0_files/CMSIS/core_cm0.h **** }  NVIC_Type;
 375:mculib/STM32F0_files/CMSIS/core_cm0.h **** 
ARM GAS  /tmp/ccOFgnnN.s 			page 8


 376:mculib/STM32F0_files/CMSIS/core_cm0.h **** /*@} end of group CMSIS_NVIC */
 377:mculib/STM32F0_files/CMSIS/core_cm0.h **** 
 378:mculib/STM32F0_files/CMSIS/core_cm0.h **** 
 379:mculib/STM32F0_files/CMSIS/core_cm0.h **** /**
 380:mculib/STM32F0_files/CMSIS/core_cm0.h ****   \ingroup  CMSIS_core_register
 381:mculib/STM32F0_files/CMSIS/core_cm0.h ****   \defgroup CMSIS_SCB     System Control Block (SCB)
 382:mculib/STM32F0_files/CMSIS/core_cm0.h ****   \brief    Type definitions for the System Control Block Registers
 383:mculib/STM32F0_files/CMSIS/core_cm0.h ****   @{
 384:mculib/STM32F0_files/CMSIS/core_cm0.h ****  */
 385:mculib/STM32F0_files/CMSIS/core_cm0.h **** 
 386:mculib/STM32F0_files/CMSIS/core_cm0.h **** /**
 387:mculib/STM32F0_files/CMSIS/core_cm0.h ****   \brief  Structure type to access the System Control Block (SCB).
 388:mculib/STM32F0_files/CMSIS/core_cm0.h ****  */
 389:mculib/STM32F0_files/CMSIS/core_cm0.h **** typedef struct
 390:mculib/STM32F0_files/CMSIS/core_cm0.h **** {
 391:mculib/STM32F0_files/CMSIS/core_cm0.h ****   __IM  uint32_t CPUID;                  /*!< Offset: 0x000 (R/ )  CPUID Base Register */
 392:mculib/STM32F0_files/CMSIS/core_cm0.h ****   __IOM uint32_t ICSR;                   /*!< Offset: 0x004 (R/W)  Interrupt Control and State Regi
 393:mculib/STM32F0_files/CMSIS/core_cm0.h ****         uint32_t RESERVED0;
 394:mculib/STM32F0_files/CMSIS/core_cm0.h ****   __IOM uint32_t AIRCR;                  /*!< Offset: 0x00C (R/W)  Application Interrupt and Reset 
 395:mculib/STM32F0_files/CMSIS/core_cm0.h ****   __IOM uint32_t SCR;                    /*!< Offset: 0x010 (R/W)  System Control Register */
 396:mculib/STM32F0_files/CMSIS/core_cm0.h ****   __IOM uint32_t CCR;                    /*!< Offset: 0x014 (R/W)  Configuration Control Register *
 397:mculib/STM32F0_files/CMSIS/core_cm0.h ****         uint32_t RESERVED1;
 398:mculib/STM32F0_files/CMSIS/core_cm0.h ****   __IOM uint32_t SHP[2U];                /*!< Offset: 0x01C (R/W)  System Handlers Priority Registe
 399:mculib/STM32F0_files/CMSIS/core_cm0.h ****   __IOM uint32_t SHCSR;                  /*!< Offset: 0x024 (R/W)  System Handler Control and State
 400:mculib/STM32F0_files/CMSIS/core_cm0.h **** } SCB_Type;
 401:mculib/STM32F0_files/CMSIS/core_cm0.h **** 
 402:mculib/STM32F0_files/CMSIS/core_cm0.h **** /* SCB CPUID Register Definitions */
 403:mculib/STM32F0_files/CMSIS/core_cm0.h **** #define SCB_CPUID_IMPLEMENTER_Pos          24U                                            /*!< SCB 
 404:mculib/STM32F0_files/CMSIS/core_cm0.h **** #define SCB_CPUID_IMPLEMENTER_Msk          (0xFFUL << SCB_CPUID_IMPLEMENTER_Pos)          /*!< SCB 
 405:mculib/STM32F0_files/CMSIS/core_cm0.h **** 
 406:mculib/STM32F0_files/CMSIS/core_cm0.h **** #define SCB_CPUID_VARIANT_Pos              20U                                            /*!< SCB 
 407:mculib/STM32F0_files/CMSIS/core_cm0.h **** #define SCB_CPUID_VARIANT_Msk              (0xFUL << SCB_CPUID_VARIANT_Pos)               /*!< SCB 
 408:mculib/STM32F0_files/CMSIS/core_cm0.h **** 
 409:mculib/STM32F0_files/CMSIS/core_cm0.h **** #define SCB_CPUID_ARCHITECTURE_Pos         16U                                            /*!< SCB 
 410:mculib/STM32F0_files/CMSIS/core_cm0.h **** #define SCB_CPUID_ARCHITECTURE_Msk         (0xFUL << SCB_CPUID_ARCHITECTURE_Pos)          /*!< SCB 
 411:mculib/STM32F0_files/CMSIS/core_cm0.h **** 
 412:mculib/STM32F0_files/CMSIS/core_cm0.h **** #define SCB_CPUID_PARTNO_Pos                4U                                            /*!< SCB 
 413:mculib/STM32F0_files/CMSIS/core_cm0.h **** #define SCB_CPUID_PARTNO_Msk               (0xFFFUL << SCB_CPUID_PARTNO_Pos)              /*!< SCB 
 414:mculib/STM32F0_files/CMSIS/core_cm0.h **** 
 415:mculib/STM32F0_files/CMSIS/core_cm0.h **** #define SCB_CPUID_REVISION_Pos              0U                                            /*!< SCB 
 416:mculib/STM32F0_files/CMSIS/core_cm0.h **** #define SCB_CPUID_REVISION_Msk             (0xFUL /*<< SCB_CPUID_REVISION_Pos*/)          /*!< SCB 
 417:mculib/STM32F0_files/CMSIS/core_cm0.h **** 
 418:mculib/STM32F0_files/CMSIS/core_cm0.h **** /* SCB Interrupt Control State Register Definitions */
 419:mculib/STM32F0_files/CMSIS/core_cm0.h **** #define SCB_ICSR_NMIPENDSET_Pos            31U                                            /*!< SCB 
 420:mculib/STM32F0_files/CMSIS/core_cm0.h **** #define SCB_ICSR_NMIPENDSET_Msk            (1UL << SCB_ICSR_NMIPENDSET_Pos)               /*!< SCB 
 421:mculib/STM32F0_files/CMSIS/core_cm0.h **** 
 422:mculib/STM32F0_files/CMSIS/core_cm0.h **** #define SCB_ICSR_PENDSVSET_Pos             28U                                            /*!< SCB 
 423:mculib/STM32F0_files/CMSIS/core_cm0.h **** #define SCB_ICSR_PENDSVSET_Msk             (1UL << SCB_ICSR_PENDSVSET_Pos)                /*!< SCB 
 424:mculib/STM32F0_files/CMSIS/core_cm0.h **** 
 425:mculib/STM32F0_files/CMSIS/core_cm0.h **** #define SCB_ICSR_PENDSVCLR_Pos             27U                                            /*!< SCB 
 426:mculib/STM32F0_files/CMSIS/core_cm0.h **** #define SCB_ICSR_PENDSVCLR_Msk             (1UL << SCB_ICSR_PENDSVCLR_Pos)                /*!< SCB 
 427:mculib/STM32F0_files/CMSIS/core_cm0.h **** 
 428:mculib/STM32F0_files/CMSIS/core_cm0.h **** #define SCB_ICSR_PENDSTSET_Pos             26U                                            /*!< SCB 
 429:mculib/STM32F0_files/CMSIS/core_cm0.h **** #define SCB_ICSR_PENDSTSET_Msk             (1UL << SCB_ICSR_PENDSTSET_Pos)                /*!< SCB 
 430:mculib/STM32F0_files/CMSIS/core_cm0.h **** 
 431:mculib/STM32F0_files/CMSIS/core_cm0.h **** #define SCB_ICSR_PENDSTCLR_Pos             25U                                            /*!< SCB 
 432:mculib/STM32F0_files/CMSIS/core_cm0.h **** #define SCB_ICSR_PENDSTCLR_Msk             (1UL << SCB_ICSR_PENDSTCLR_Pos)                /*!< SCB 
ARM GAS  /tmp/ccOFgnnN.s 			page 9


 433:mculib/STM32F0_files/CMSIS/core_cm0.h **** 
 434:mculib/STM32F0_files/CMSIS/core_cm0.h **** #define SCB_ICSR_ISRPREEMPT_Pos            23U                                            /*!< SCB 
 435:mculib/STM32F0_files/CMSIS/core_cm0.h **** #define SCB_ICSR_ISRPREEMPT_Msk            (1UL << SCB_ICSR_ISRPREEMPT_Pos)               /*!< SCB 
 436:mculib/STM32F0_files/CMSIS/core_cm0.h **** 
 437:mculib/STM32F0_files/CMSIS/core_cm0.h **** #define SCB_ICSR_ISRPENDING_Pos            22U                                            /*!< SCB 
 438:mculib/STM32F0_files/CMSIS/core_cm0.h **** #define SCB_ICSR_ISRPENDING_Msk            (1UL << SCB_ICSR_ISRPENDING_Pos)               /*!< SCB 
 439:mculib/STM32F0_files/CMSIS/core_cm0.h **** 
 440:mculib/STM32F0_files/CMSIS/core_cm0.h **** #define SCB_ICSR_VECTPENDING_Pos           12U                                            /*!< SCB 
 441:mculib/STM32F0_files/CMSIS/core_cm0.h **** #define SCB_ICSR_VECTPENDING_Msk           (0x1FFUL << SCB_ICSR_VECTPENDING_Pos)          /*!< SCB 
 442:mculib/STM32F0_files/CMSIS/core_cm0.h **** 
 443:mculib/STM32F0_files/CMSIS/core_cm0.h **** #define SCB_ICSR_VECTACTIVE_Pos             0U                                            /*!< SCB 
 444:mculib/STM32F0_files/CMSIS/core_cm0.h **** #define SCB_ICSR_VECTACTIVE_Msk            (0x1FFUL /*<< SCB_ICSR_VECTACTIVE_Pos*/)       /*!< SCB 
 445:mculib/STM32F0_files/CMSIS/core_cm0.h **** 
 446:mculib/STM32F0_files/CMSIS/core_cm0.h **** /* SCB Application Interrupt and Reset Control Register Definitions */
 447:mculib/STM32F0_files/CMSIS/core_cm0.h **** #define SCB_AIRCR_VECTKEY_Pos              16U                                            /*!< SCB 
 448:mculib/STM32F0_files/CMSIS/core_cm0.h **** #define SCB_AIRCR_VECTKEY_Msk              (0xFFFFUL << SCB_AIRCR_VECTKEY_Pos)            /*!< SCB 
 449:mculib/STM32F0_files/CMSIS/core_cm0.h **** 
 450:mculib/STM32F0_files/CMSIS/core_cm0.h **** #define SCB_AIRCR_VECTKEYSTAT_Pos          16U                                            /*!< SCB 
 451:mculib/STM32F0_files/CMSIS/core_cm0.h **** #define SCB_AIRCR_VECTKEYSTAT_Msk          (0xFFFFUL << SCB_AIRCR_VECTKEYSTAT_Pos)        /*!< SCB 
 452:mculib/STM32F0_files/CMSIS/core_cm0.h **** 
 453:mculib/STM32F0_files/CMSIS/core_cm0.h **** #define SCB_AIRCR_ENDIANESS_Pos            15U                                            /*!< SCB 
 454:mculib/STM32F0_files/CMSIS/core_cm0.h **** #define SCB_AIRCR_ENDIANESS_Msk            (1UL << SCB_AIRCR_ENDIANESS_Pos)               /*!< SCB 
 455:mculib/STM32F0_files/CMSIS/core_cm0.h **** 
 456:mculib/STM32F0_files/CMSIS/core_cm0.h **** #define SCB_AIRCR_SYSRESETREQ_Pos           2U                                            /*!< SCB 
 457:mculib/STM32F0_files/CMSIS/core_cm0.h **** #define SCB_AIRCR_SYSRESETREQ_Msk          (1UL << SCB_AIRCR_SYSRESETREQ_Pos)             /*!< SCB 
 458:mculib/STM32F0_files/CMSIS/core_cm0.h **** 
 459:mculib/STM32F0_files/CMSIS/core_cm0.h **** #define SCB_AIRCR_VECTCLRACTIVE_Pos         1U                                            /*!< SCB 
 460:mculib/STM32F0_files/CMSIS/core_cm0.h **** #define SCB_AIRCR_VECTCLRACTIVE_Msk        (1UL << SCB_AIRCR_VECTCLRACTIVE_Pos)           /*!< SCB 
 461:mculib/STM32F0_files/CMSIS/core_cm0.h **** 
 462:mculib/STM32F0_files/CMSIS/core_cm0.h **** /* SCB System Control Register Definitions */
 463:mculib/STM32F0_files/CMSIS/core_cm0.h **** #define SCB_SCR_SEVONPEND_Pos               4U                                            /*!< SCB 
 464:mculib/STM32F0_files/CMSIS/core_cm0.h **** #define SCB_SCR_SEVONPEND_Msk              (1UL << SCB_SCR_SEVONPEND_Pos)                 /*!< SCB 
 465:mculib/STM32F0_files/CMSIS/core_cm0.h **** 
 466:mculib/STM32F0_files/CMSIS/core_cm0.h **** #define SCB_SCR_SLEEPDEEP_Pos               2U                                            /*!< SCB 
 467:mculib/STM32F0_files/CMSIS/core_cm0.h **** #define SCB_SCR_SLEEPDEEP_Msk              (1UL << SCB_SCR_SLEEPDEEP_Pos)                 /*!< SCB 
 468:mculib/STM32F0_files/CMSIS/core_cm0.h **** 
 469:mculib/STM32F0_files/CMSIS/core_cm0.h **** #define SCB_SCR_SLEEPONEXIT_Pos             1U                                            /*!< SCB 
 470:mculib/STM32F0_files/CMSIS/core_cm0.h **** #define SCB_SCR_SLEEPONEXIT_Msk            (1UL << SCB_SCR_SLEEPONEXIT_Pos)               /*!< SCB 
 471:mculib/STM32F0_files/CMSIS/core_cm0.h **** 
 472:mculib/STM32F0_files/CMSIS/core_cm0.h **** /* SCB Configuration Control Register Definitions */
 473:mculib/STM32F0_files/CMSIS/core_cm0.h **** #define SCB_CCR_STKALIGN_Pos                9U                                            /*!< SCB 
 474:mculib/STM32F0_files/CMSIS/core_cm0.h **** #define SCB_CCR_STKALIGN_Msk               (1UL << SCB_CCR_STKALIGN_Pos)                  /*!< SCB 
 475:mculib/STM32F0_files/CMSIS/core_cm0.h **** 
 476:mculib/STM32F0_files/CMSIS/core_cm0.h **** #define SCB_CCR_UNALIGN_TRP_Pos             3U                                            /*!< SCB 
 477:mculib/STM32F0_files/CMSIS/core_cm0.h **** #define SCB_CCR_UNALIGN_TRP_Msk            (1UL << SCB_CCR_UNALIGN_TRP_Pos)               /*!< SCB 
 478:mculib/STM32F0_files/CMSIS/core_cm0.h **** 
 479:mculib/STM32F0_files/CMSIS/core_cm0.h **** /* SCB System Handler Control and State Register Definitions */
 480:mculib/STM32F0_files/CMSIS/core_cm0.h **** #define SCB_SHCSR_SVCALLPENDED_Pos         15U                                            /*!< SCB 
 481:mculib/STM32F0_files/CMSIS/core_cm0.h **** #define SCB_SHCSR_SVCALLPENDED_Msk         (1UL << SCB_SHCSR_SVCALLPENDED_Pos)            /*!< SCB 
 482:mculib/STM32F0_files/CMSIS/core_cm0.h **** 
 483:mculib/STM32F0_files/CMSIS/core_cm0.h **** /*@} end of group CMSIS_SCB */
 484:mculib/STM32F0_files/CMSIS/core_cm0.h **** 
 485:mculib/STM32F0_files/CMSIS/core_cm0.h **** 
 486:mculib/STM32F0_files/CMSIS/core_cm0.h **** /**
 487:mculib/STM32F0_files/CMSIS/core_cm0.h ****   \ingroup  CMSIS_core_register
 488:mculib/STM32F0_files/CMSIS/core_cm0.h ****   \defgroup CMSIS_SysTick     System Tick Timer (SysTick)
 489:mculib/STM32F0_files/CMSIS/core_cm0.h ****   \brief    Type definitions for the System Timer Registers.
ARM GAS  /tmp/ccOFgnnN.s 			page 10


 490:mculib/STM32F0_files/CMSIS/core_cm0.h ****   @{
 491:mculib/STM32F0_files/CMSIS/core_cm0.h ****  */
 492:mculib/STM32F0_files/CMSIS/core_cm0.h **** 
 493:mculib/STM32F0_files/CMSIS/core_cm0.h **** /**
 494:mculib/STM32F0_files/CMSIS/core_cm0.h ****   \brief  Structure type to access the System Timer (SysTick).
 495:mculib/STM32F0_files/CMSIS/core_cm0.h ****  */
 496:mculib/STM32F0_files/CMSIS/core_cm0.h **** typedef struct
 497:mculib/STM32F0_files/CMSIS/core_cm0.h **** {
 498:mculib/STM32F0_files/CMSIS/core_cm0.h ****   __IOM uint32_t CTRL;                   /*!< Offset: 0x000 (R/W)  SysTick Control and Status Regis
 499:mculib/STM32F0_files/CMSIS/core_cm0.h ****   __IOM uint32_t LOAD;                   /*!< Offset: 0x004 (R/W)  SysTick Reload Value Register */
 500:mculib/STM32F0_files/CMSIS/core_cm0.h ****   __IOM uint32_t VAL;                    /*!< Offset: 0x008 (R/W)  SysTick Current Value Register *
 501:mculib/STM32F0_files/CMSIS/core_cm0.h ****   __IM  uint32_t CALIB;                  /*!< Offset: 0x00C (R/ )  SysTick Calibration Register */
 502:mculib/STM32F0_files/CMSIS/core_cm0.h **** } SysTick_Type;
 503:mculib/STM32F0_files/CMSIS/core_cm0.h **** 
 504:mculib/STM32F0_files/CMSIS/core_cm0.h **** /* SysTick Control / Status Register Definitions */
 505:mculib/STM32F0_files/CMSIS/core_cm0.h **** #define SysTick_CTRL_COUNTFLAG_Pos         16U                                            /*!< SysT
 506:mculib/STM32F0_files/CMSIS/core_cm0.h **** #define SysTick_CTRL_COUNTFLAG_Msk         (1UL << SysTick_CTRL_COUNTFLAG_Pos)            /*!< SysT
 507:mculib/STM32F0_files/CMSIS/core_cm0.h **** 
 508:mculib/STM32F0_files/CMSIS/core_cm0.h **** #define SysTick_CTRL_CLKSOURCE_Pos          2U                                            /*!< SysT
 509:mculib/STM32F0_files/CMSIS/core_cm0.h **** #define SysTick_CTRL_CLKSOURCE_Msk         (1UL << SysTick_CTRL_CLKSOURCE_Pos)            /*!< SysT
 510:mculib/STM32F0_files/CMSIS/core_cm0.h **** 
 511:mculib/STM32F0_files/CMSIS/core_cm0.h **** #define SysTick_CTRL_TICKINT_Pos            1U                                            /*!< SysT
 512:mculib/STM32F0_files/CMSIS/core_cm0.h **** #define SysTick_CTRL_TICKINT_Msk           (1UL << SysTick_CTRL_TICKINT_Pos)              /*!< SysT
 513:mculib/STM32F0_files/CMSIS/core_cm0.h **** 
 514:mculib/STM32F0_files/CMSIS/core_cm0.h **** #define SysTick_CTRL_ENABLE_Pos             0U                                            /*!< SysT
 515:mculib/STM32F0_files/CMSIS/core_cm0.h **** #define SysTick_CTRL_ENABLE_Msk            (1UL /*<< SysTick_CTRL_ENABLE_Pos*/)           /*!< SysT
 516:mculib/STM32F0_files/CMSIS/core_cm0.h **** 
 517:mculib/STM32F0_files/CMSIS/core_cm0.h **** /* SysTick Reload Register Definitions */
 518:mculib/STM32F0_files/CMSIS/core_cm0.h **** #define SysTick_LOAD_RELOAD_Pos             0U                                            /*!< SysT
 519:mculib/STM32F0_files/CMSIS/core_cm0.h **** #define SysTick_LOAD_RELOAD_Msk            (0xFFFFFFUL /*<< SysTick_LOAD_RELOAD_Pos*/)    /*!< SysT
 520:mculib/STM32F0_files/CMSIS/core_cm0.h **** 
 521:mculib/STM32F0_files/CMSIS/core_cm0.h **** /* SysTick Current Register Definitions */
 522:mculib/STM32F0_files/CMSIS/core_cm0.h **** #define SysTick_VAL_CURRENT_Pos             0U                                            /*!< SysT
 523:mculib/STM32F0_files/CMSIS/core_cm0.h **** #define SysTick_VAL_CURRENT_Msk            (0xFFFFFFUL /*<< SysTick_VAL_CURRENT_Pos*/)    /*!< SysT
 524:mculib/STM32F0_files/CMSIS/core_cm0.h **** 
 525:mculib/STM32F0_files/CMSIS/core_cm0.h **** /* SysTick Calibration Register Definitions */
 526:mculib/STM32F0_files/CMSIS/core_cm0.h **** #define SysTick_CALIB_NOREF_Pos            31U                                            /*!< SysT
 527:mculib/STM32F0_files/CMSIS/core_cm0.h **** #define SysTick_CALIB_NOREF_Msk            (1UL << SysTick_CALIB_NOREF_Pos)               /*!< SysT
 528:mculib/STM32F0_files/CMSIS/core_cm0.h **** 
 529:mculib/STM32F0_files/CMSIS/core_cm0.h **** #define SysTick_CALIB_SKEW_Pos             30U                                            /*!< SysT
 530:mculib/STM32F0_files/CMSIS/core_cm0.h **** #define SysTick_CALIB_SKEW_Msk             (1UL << SysTick_CALIB_SKEW_Pos)                /*!< SysT
 531:mculib/STM32F0_files/CMSIS/core_cm0.h **** 
 532:mculib/STM32F0_files/CMSIS/core_cm0.h **** #define SysTick_CALIB_TENMS_Pos             0U                                            /*!< SysT
 533:mculib/STM32F0_files/CMSIS/core_cm0.h **** #define SysTick_CALIB_TENMS_Msk            (0xFFFFFFUL /*<< SysTick_CALIB_TENMS_Pos*/)    /*!< SysT
 534:mculib/STM32F0_files/CMSIS/core_cm0.h **** 
 535:mculib/STM32F0_files/CMSIS/core_cm0.h **** /*@} end of group CMSIS_SysTick */
 536:mculib/STM32F0_files/CMSIS/core_cm0.h **** 
 537:mculib/STM32F0_files/CMSIS/core_cm0.h **** 
 538:mculib/STM32F0_files/CMSIS/core_cm0.h **** /**
 539:mculib/STM32F0_files/CMSIS/core_cm0.h ****   \ingroup  CMSIS_core_register
 540:mculib/STM32F0_files/CMSIS/core_cm0.h ****   \defgroup CMSIS_CoreDebug       Core Debug Registers (CoreDebug)
 541:mculib/STM32F0_files/CMSIS/core_cm0.h ****   \brief    Cortex-M0 Core Debug Registers (DCB registers, SHCSR, and DFSR) are only accessible ove
 542:mculib/STM32F0_files/CMSIS/core_cm0.h ****             Therefore they are not covered by the Cortex-M0 header file.
 543:mculib/STM32F0_files/CMSIS/core_cm0.h ****   @{
 544:mculib/STM32F0_files/CMSIS/core_cm0.h ****  */
 545:mculib/STM32F0_files/CMSIS/core_cm0.h **** /*@} end of group CMSIS_CoreDebug */
 546:mculib/STM32F0_files/CMSIS/core_cm0.h **** 
ARM GAS  /tmp/ccOFgnnN.s 			page 11


 547:mculib/STM32F0_files/CMSIS/core_cm0.h **** 
 548:mculib/STM32F0_files/CMSIS/core_cm0.h **** /**
 549:mculib/STM32F0_files/CMSIS/core_cm0.h ****   \ingroup    CMSIS_core_register
 550:mculib/STM32F0_files/CMSIS/core_cm0.h ****   \defgroup   CMSIS_core_bitfield     Core register bit field macros
 551:mculib/STM32F0_files/CMSIS/core_cm0.h ****   \brief      Macros for use with bit field definitions (xxx_Pos, xxx_Msk).
 552:mculib/STM32F0_files/CMSIS/core_cm0.h ****   @{
 553:mculib/STM32F0_files/CMSIS/core_cm0.h ****  */
 554:mculib/STM32F0_files/CMSIS/core_cm0.h **** 
 555:mculib/STM32F0_files/CMSIS/core_cm0.h **** /**
 556:mculib/STM32F0_files/CMSIS/core_cm0.h ****   \brief   Mask and shift a bit field value for use in a register bit range.
 557:mculib/STM32F0_files/CMSIS/core_cm0.h ****   \param[in] field  Name of the register bit field.
 558:mculib/STM32F0_files/CMSIS/core_cm0.h ****   \param[in] value  Value of the bit field.
 559:mculib/STM32F0_files/CMSIS/core_cm0.h ****   \return           Masked and shifted value.
 560:mculib/STM32F0_files/CMSIS/core_cm0.h **** */
 561:mculib/STM32F0_files/CMSIS/core_cm0.h **** #define _VAL2FLD(field, value)    ((value << field ## _Pos) & field ## _Msk)
 562:mculib/STM32F0_files/CMSIS/core_cm0.h **** 
 563:mculib/STM32F0_files/CMSIS/core_cm0.h **** /**
 564:mculib/STM32F0_files/CMSIS/core_cm0.h ****   \brief     Mask and shift a register value to extract a bit filed value.
 565:mculib/STM32F0_files/CMSIS/core_cm0.h ****   \param[in] field  Name of the register bit field.
 566:mculib/STM32F0_files/CMSIS/core_cm0.h ****   \param[in] value  Value of register.
 567:mculib/STM32F0_files/CMSIS/core_cm0.h ****   \return           Masked and shifted bit field value.
 568:mculib/STM32F0_files/CMSIS/core_cm0.h **** */
 569:mculib/STM32F0_files/CMSIS/core_cm0.h **** #define _FLD2VAL(field, value)    ((value & field ## _Msk) >> field ## _Pos)
 570:mculib/STM32F0_files/CMSIS/core_cm0.h **** 
 571:mculib/STM32F0_files/CMSIS/core_cm0.h **** /*@} end of group CMSIS_core_bitfield */
 572:mculib/STM32F0_files/CMSIS/core_cm0.h **** 
 573:mculib/STM32F0_files/CMSIS/core_cm0.h **** 
 574:mculib/STM32F0_files/CMSIS/core_cm0.h **** /**
 575:mculib/STM32F0_files/CMSIS/core_cm0.h ****   \ingroup    CMSIS_core_register
 576:mculib/STM32F0_files/CMSIS/core_cm0.h ****   \defgroup   CMSIS_core_base     Core Definitions
 577:mculib/STM32F0_files/CMSIS/core_cm0.h ****   \brief      Definitions for base addresses, unions, and structures.
 578:mculib/STM32F0_files/CMSIS/core_cm0.h ****   @{
 579:mculib/STM32F0_files/CMSIS/core_cm0.h ****  */
 580:mculib/STM32F0_files/CMSIS/core_cm0.h **** 
 581:mculib/STM32F0_files/CMSIS/core_cm0.h **** /* Memory mapping of Cortex-M0 Hardware */
 582:mculib/STM32F0_files/CMSIS/core_cm0.h **** #define SCS_BASE            (0xE000E000UL)                            /*!< System Control Space Bas
 583:mculib/STM32F0_files/CMSIS/core_cm0.h **** #define SysTick_BASE        (SCS_BASE +  0x0010UL)                    /*!< SysTick Base Address */
 584:mculib/STM32F0_files/CMSIS/core_cm0.h **** #define NVIC_BASE           (SCS_BASE +  0x0100UL)                    /*!< NVIC Base Address */
 585:mculib/STM32F0_files/CMSIS/core_cm0.h **** #define SCB_BASE            (SCS_BASE +  0x0D00UL)                    /*!< System Control Block Bas
 586:mculib/STM32F0_files/CMSIS/core_cm0.h **** 
 587:mculib/STM32F0_files/CMSIS/core_cm0.h **** #define SCB                 ((SCB_Type       *)     SCB_BASE      )   /*!< SCB configuration struct
 588:mculib/STM32F0_files/CMSIS/core_cm0.h **** #define SysTick             ((SysTick_Type   *)     SysTick_BASE  )   /*!< SysTick configuration st
 589:mculib/STM32F0_files/CMSIS/core_cm0.h **** #define NVIC                ((NVIC_Type      *)     NVIC_BASE     )   /*!< NVIC configuration struc
 590:mculib/STM32F0_files/CMSIS/core_cm0.h **** 
 591:mculib/STM32F0_files/CMSIS/core_cm0.h **** 
 592:mculib/STM32F0_files/CMSIS/core_cm0.h **** /*@} */
 593:mculib/STM32F0_files/CMSIS/core_cm0.h **** 
 594:mculib/STM32F0_files/CMSIS/core_cm0.h **** 
 595:mculib/STM32F0_files/CMSIS/core_cm0.h **** 
 596:mculib/STM32F0_files/CMSIS/core_cm0.h **** /*******************************************************************************
 597:mculib/STM32F0_files/CMSIS/core_cm0.h ****  *                Hardware Abstraction Layer
 598:mculib/STM32F0_files/CMSIS/core_cm0.h ****   Core Function Interface contains:
 599:mculib/STM32F0_files/CMSIS/core_cm0.h ****   - Core NVIC Functions
 600:mculib/STM32F0_files/CMSIS/core_cm0.h ****   - Core SysTick Functions
 601:mculib/STM32F0_files/CMSIS/core_cm0.h ****   - Core Register Access Functions
 602:mculib/STM32F0_files/CMSIS/core_cm0.h ****  ******************************************************************************/
 603:mculib/STM32F0_files/CMSIS/core_cm0.h **** /**
ARM GAS  /tmp/ccOFgnnN.s 			page 12


 604:mculib/STM32F0_files/CMSIS/core_cm0.h ****   \defgroup CMSIS_Core_FunctionInterface Functions and Instructions Reference
 605:mculib/STM32F0_files/CMSIS/core_cm0.h **** */
 606:mculib/STM32F0_files/CMSIS/core_cm0.h **** 
 607:mculib/STM32F0_files/CMSIS/core_cm0.h **** 
 608:mculib/STM32F0_files/CMSIS/core_cm0.h **** 
 609:mculib/STM32F0_files/CMSIS/core_cm0.h **** /* ##########################   NVIC functions  #################################### */
 610:mculib/STM32F0_files/CMSIS/core_cm0.h **** /**
 611:mculib/STM32F0_files/CMSIS/core_cm0.h ****   \ingroup  CMSIS_Core_FunctionInterface
 612:mculib/STM32F0_files/CMSIS/core_cm0.h ****   \defgroup CMSIS_Core_NVICFunctions NVIC Functions
 613:mculib/STM32F0_files/CMSIS/core_cm0.h ****   \brief    Functions that manage interrupts and exceptions via the NVIC.
 614:mculib/STM32F0_files/CMSIS/core_cm0.h ****   @{
 615:mculib/STM32F0_files/CMSIS/core_cm0.h ****  */
 616:mculib/STM32F0_files/CMSIS/core_cm0.h **** 
 617:mculib/STM32F0_files/CMSIS/core_cm0.h **** /* Interrupt Priorities are WORD accessible only under ARMv6M                   */
 618:mculib/STM32F0_files/CMSIS/core_cm0.h **** /* The following MACROS handle generation of the register offset and byte masks */
 619:mculib/STM32F0_files/CMSIS/core_cm0.h **** #define _BIT_SHIFT(IRQn)         (  ((((uint32_t)(int32_t)(IRQn))         )      &  0x03UL) * 8UL)
 620:mculib/STM32F0_files/CMSIS/core_cm0.h **** #define _SHP_IDX(IRQn)           ( (((((uint32_t)(int32_t)(IRQn)) & 0x0FUL)-8UL) >>    2UL)      )
 621:mculib/STM32F0_files/CMSIS/core_cm0.h **** #define _IP_IDX(IRQn)            (   (((uint32_t)(int32_t)(IRQn))                >>    2UL)      )
 622:mculib/STM32F0_files/CMSIS/core_cm0.h **** 
 623:mculib/STM32F0_files/CMSIS/core_cm0.h **** 
 624:mculib/STM32F0_files/CMSIS/core_cm0.h **** /**
 625:mculib/STM32F0_files/CMSIS/core_cm0.h ****   \brief   Enable External Interrupt
 626:mculib/STM32F0_files/CMSIS/core_cm0.h ****   \details Enables a device-specific interrupt in the NVIC interrupt controller.
 627:mculib/STM32F0_files/CMSIS/core_cm0.h ****   \param [in]      IRQn  External interrupt number. Value cannot be negative.
 628:mculib/STM32F0_files/CMSIS/core_cm0.h ****  */
 629:mculib/STM32F0_files/CMSIS/core_cm0.h **** __STATIC_INLINE void NVIC_EnableIRQ(IRQn_Type IRQn)
 630:mculib/STM32F0_files/CMSIS/core_cm0.h **** {
  26              		.loc 1 630 1
  27              		.cfi_startproc
  28              		@ args = 0, pretend = 0, frame = 8
  29              		@ frame_needed = 1, uses_anonymous_args = 0
  30 0000 80B5     		push	{r7, lr}
  31              	.LCFI0:
  32              		.cfi_def_cfa_offset 8
  33              		.cfi_offset 7, -8
  34              		.cfi_offset 14, -4
  35 0002 82B0     		sub	sp, sp, #8
  36              	.LCFI1:
  37              		.cfi_def_cfa_offset 16
  38 0004 00AF     		add	r7, sp, #0
  39              	.LCFI2:
  40              		.cfi_def_cfa_register 7
  41 0006 0200     		movs	r2, r0
  42 0008 FB1D     		adds	r3, r7, #7
  43 000a 1A70     		strb	r2, [r3]
 631:mculib/STM32F0_files/CMSIS/core_cm0.h ****   NVIC->ISER[0U] = (uint32_t)(1UL << (((uint32_t)(int32_t)IRQn) & 0x1FUL));
  44              		.loc 1 631 40
  45 000c FB1D     		adds	r3, r7, #7
  46 000e 1B78     		ldrb	r3, [r3]
  47 0010 5BB2     		sxtb	r3, r3
  48              		.loc 1 631 65
  49 0012 1F22     		movs	r2, #31
  50 0014 1A40     		ands	r2, r3
  51              		.loc 1 631 16
  52 0016 044B     		ldr	r3, .L2
  53              		.loc 1 631 35
  54 0018 0121     		movs	r1, #1
ARM GAS  /tmp/ccOFgnnN.s 			page 13


  55 001a 9140     		lsls	r1, r1, r2
  56 001c 0A00     		movs	r2, r1
  57              		.loc 1 631 18
  58 001e 1A60     		str	r2, [r3]
 632:mculib/STM32F0_files/CMSIS/core_cm0.h **** }
  59              		.loc 1 632 1
  60 0020 C046     		nop
  61 0022 BD46     		mov	sp, r7
  62 0024 02B0     		add	sp, sp, #8
  63              		@ sp needed
  64 0026 80BD     		pop	{r7, pc}
  65              	.L3:
  66              		.align	2
  67              	.L2:
  68 0028 00E100E0 		.word	-536813312
  69              		.cfi_endproc
  70              	.LFE45:
  72              		.section	.text._ZN3mcu3RCC3setENS_8RCC_bits4CFGR12AHBprescalerE,"axG",%progbits,_ZN3mcu3RCC3setENS
  73              		.align	1
  74              		.weak	_ZN3mcu3RCC3setENS_8RCC_bits4CFGR12AHBprescalerE
  75              		.syntax unified
  76              		.code	16
  77              		.thumb_func
  78              		.fpu softvfp
  80              	_ZN3mcu3RCC3setENS_8RCC_bits4CFGR12AHBprescalerE:
  81              	.LFB57:
  82              		.file 2 "mculib/src/periph/rcc_f0.h"
   1:mculib/src/periph/rcc_f0.h **** #pragma once
   2:mculib/src/periph/rcc_f0.h **** 
   3:mculib/src/periph/rcc_f0.h **** #include "bits_rcc_f0.h"
   4:mculib/src/periph/rcc_f0.h **** 
   5:mculib/src/periph/rcc_f0.h **** namespace mcu {
   6:mculib/src/periph/rcc_f0.h **** 
   7:mculib/src/periph/rcc_f0.h **** class RCC {
   8:mculib/src/periph/rcc_f0.h **** 	volatile RCC_bits::CR      CR;         // clock control register,                offset: 0x00
   9:mculib/src/periph/rcc_f0.h **** 	volatile RCC_bits::CFGR    CFGR;       // clock configuration register,          offset: 0x04
  10:mculib/src/periph/rcc_f0.h **** 	volatile uint32_t          CIR;        // clock interrupt register,              offset: 0x08
  11:mculib/src/periph/rcc_f0.h **** 	volatile uint32_t          APB2RSTR;   // APB2 peripheral reset register,        offset: 0x0C
  12:mculib/src/periph/rcc_f0.h **** 	volatile uint32_t          APB1RSTR;   // APB1 peripheral reset register,        offset: 0x10
  13:mculib/src/periph/rcc_f0.h **** 	volatile RCC_bits::AHBENR  AHBENR;     // AHB peripheral clock register,         offset: 0x14
  14:mculib/src/periph/rcc_f0.h **** 	volatile RCC_bits::APB2ENR APB2ENR;    // APB2 peripheral clock enable register, offset: 0x18
  15:mculib/src/periph/rcc_f0.h **** 	volatile RCC_bits::APB1ENR APB1ENR;    // APB1 peripheral clock enable register, offset: 0x1C
  16:mculib/src/periph/rcc_f0.h **** 	volatile uint32_t          BDCR;       // Backup domain control register,        offset: 0x20
  17:mculib/src/periph/rcc_f0.h **** 	volatile uint32_t          CSR;        // clock control & status register,       offset: 0x24
  18:mculib/src/periph/rcc_f0.h **** 	volatile uint32_t          AHBRSTR;    // AHB peripheral reset register,         offset: 0x28
  19:mculib/src/periph/rcc_f0.h **** 	volatile uint32_t          CFGR2;      // clock configuration register 2,        offset: 0x2C
  20:mculib/src/periph/rcc_f0.h **** 	volatile uint32_t          CFGR3;      // clock configuration register 3,        offset: 0x30
  21:mculib/src/periph/rcc_f0.h **** 	volatile uint32_t          CR2;        // clock control register 2,              offset: 0x34
  22:mculib/src/periph/rcc_f0.h **** 
  23:mculib/src/periph/rcc_f0.h **** 
  24:mculib/src/periph/rcc_f0.h **** public:
  25:mculib/src/periph/rcc_f0.h **** 	using CMSIS_type    = RCC_TypeDef;
  26:mculib/src/periph/rcc_f0.h **** 	using AHBprescaler  = RCC_bits::CFGR::AHBprescaler;
  27:mculib/src/periph/rcc_f0.h **** 	using APBprescaler  = RCC_bits::CFGR::APBprescaler;
  28:mculib/src/periph/rcc_f0.h **** 	using SystemClock   = RCC_bits::CFGR::SystemClock;
  29:mculib/src/periph/rcc_f0.h **** 	using PLLsource     = RCC_bits::CFGR::PLLsource;
  30:mculib/src/periph/rcc_f0.h **** 	using PLLmultiplier = RCC_bits::CFGR::PLLmultiplier;
ARM GAS  /tmp/ccOFgnnN.s 			page 14


  31:mculib/src/periph/rcc_f0.h **** 
  32:mculib/src/periph/rcc_f0.h **** 	auto& like_CMSIS() { return *reinterpret_cast<CMSIS_type*>(this); }
  33:mculib/src/periph/rcc_f0.h **** 
  34:mculib/src/periph/rcc_f0.h **** 	RCC& set (AHBprescaler  v) { CFGR.HPRE   = v; return *this; }
  83              		.loc 2 34 7
  84              		.cfi_startproc
  85              		@ args = 0, pretend = 0, frame = 8
  86              		@ frame_needed = 1, uses_anonymous_args = 0
  87 0000 80B5     		push	{r7, lr}
  88              	.LCFI3:
  89              		.cfi_def_cfa_offset 8
  90              		.cfi_offset 7, -8
  91              		.cfi_offset 14, -4
  92 0002 82B0     		sub	sp, sp, #8
  93              	.LCFI4:
  94              		.cfi_def_cfa_offset 16
  95 0004 00AF     		add	r7, sp, #0
  96              	.LCFI5:
  97              		.cfi_def_cfa_register 7
  98 0006 7860     		str	r0, [r7, #4]
  99 0008 0A00     		movs	r2, r1
 100 000a FB1C     		adds	r3, r7, #3
 101 000c 1A70     		strb	r2, [r3]
 102              		.loc 2 34 45
 103 000e FB1C     		adds	r3, r7, #3
 104 0010 1B78     		ldrb	r3, [r3]
 105 0012 0F22     		movs	r2, #15
 106 0014 1340     		ands	r3, r2
 107 0016 DAB2     		uxtb	r2, r3
 108              		.loc 2 34 43
 109 0018 7B68     		ldr	r3, [r7, #4]
 110 001a 0F21     		movs	r1, #15
 111 001c 0A40     		ands	r2, r1
 112 001e 1201     		lsls	r2, r2, #4
 113 0020 5968     		ldr	r1, [r3, #4]
 114 0022 F020     		movs	r0, #240
 115 0024 8143     		bics	r1, r0
 116 0026 0A43     		orrs	r2, r1
 117 0028 5A60     		str	r2, [r3, #4]
 118              		.loc 2 34 56
 119 002a 7B68     		ldr	r3, [r7, #4]
 120              		.loc 2 34 62
 121 002c 1800     		movs	r0, r3
 122 002e BD46     		mov	sp, r7
 123 0030 02B0     		add	sp, sp, #8
 124              		@ sp needed
 125 0032 80BD     		pop	{r7, pc}
 126              		.cfi_endproc
 127              	.LFE57:
 129              		.section	.text._ZN3mcu3RCC3setENS_8RCC_bits4CFGR12APBprescalerE,"axG",%progbits,_ZN3mcu3RCC3setENS
 130              		.align	1
 131              		.weak	_ZN3mcu3RCC3setENS_8RCC_bits4CFGR12APBprescalerE
 132              		.syntax unified
 133              		.code	16
 134              		.thumb_func
 135              		.fpu softvfp
 137              	_ZN3mcu3RCC3setENS_8RCC_bits4CFGR12APBprescalerE:
ARM GAS  /tmp/ccOFgnnN.s 			page 15


 138              	.LFB58:
  35:mculib/src/periph/rcc_f0.h **** 	RCC& set (APBprescaler  v) { CFGR.PPRE   = v; return *this; }
 139              		.loc 2 35 7
 140              		.cfi_startproc
 141              		@ args = 0, pretend = 0, frame = 8
 142              		@ frame_needed = 1, uses_anonymous_args = 0
 143 0000 80B5     		push	{r7, lr}
 144              	.LCFI6:
 145              		.cfi_def_cfa_offset 8
 146              		.cfi_offset 7, -8
 147              		.cfi_offset 14, -4
 148 0002 82B0     		sub	sp, sp, #8
 149              	.LCFI7:
 150              		.cfi_def_cfa_offset 16
 151 0004 00AF     		add	r7, sp, #0
 152              	.LCFI8:
 153              		.cfi_def_cfa_register 7
 154 0006 7860     		str	r0, [r7, #4]
 155 0008 0A00     		movs	r2, r1
 156 000a FB1C     		adds	r3, r7, #3
 157 000c 1A70     		strb	r2, [r3]
 158              		.loc 2 35 45
 159 000e FB1C     		adds	r3, r7, #3
 160 0010 1B78     		ldrb	r3, [r3]
 161 0012 0722     		movs	r2, #7
 162 0014 1340     		ands	r3, r2
 163 0016 DAB2     		uxtb	r2, r3
 164              		.loc 2 35 43
 165 0018 7B68     		ldr	r3, [r7, #4]
 166 001a 0721     		movs	r1, #7
 167 001c 0A40     		ands	r2, r1
 168 001e 1202     		lsls	r2, r2, #8
 169 0020 5968     		ldr	r1, [r3, #4]
 170 0022 0448     		ldr	r0, .L8
 171 0024 0140     		ands	r1, r0
 172 0026 0A43     		orrs	r2, r1
 173 0028 5A60     		str	r2, [r3, #4]
 174              		.loc 2 35 56
 175 002a 7B68     		ldr	r3, [r7, #4]
 176              		.loc 2 35 62
 177 002c 1800     		movs	r0, r3
 178 002e BD46     		mov	sp, r7
 179 0030 02B0     		add	sp, sp, #8
 180              		@ sp needed
 181 0032 80BD     		pop	{r7, pc}
 182              	.L9:
 183              		.align	2
 184              	.L8:
 185 0034 FFF8FFFF 		.word	-1793
 186              		.cfi_endproc
 187              	.LFE58:
 189              		.section	.text._ZN3mcu3RCC3setENS_8RCC_bits4CFGR11SystemClockE,"axG",%progbits,_ZN3mcu3RCC3setENS_
 190              		.align	1
 191              		.weak	_ZN3mcu3RCC3setENS_8RCC_bits4CFGR11SystemClockE
 192              		.syntax unified
 193              		.code	16
 194              		.thumb_func
ARM GAS  /tmp/ccOFgnnN.s 			page 16


 195              		.fpu softvfp
 197              	_ZN3mcu3RCC3setENS_8RCC_bits4CFGR11SystemClockE:
 198              	.LFB59:
  36:mculib/src/periph/rcc_f0.h **** 	RCC& set (SystemClock   v) { CFGR.SW     = v; return *this; }
 199              		.loc 2 36 7
 200              		.cfi_startproc
 201              		@ args = 0, pretend = 0, frame = 8
 202              		@ frame_needed = 1, uses_anonymous_args = 0
 203 0000 80B5     		push	{r7, lr}
 204              	.LCFI9:
 205              		.cfi_def_cfa_offset 8
 206              		.cfi_offset 7, -8
 207              		.cfi_offset 14, -4
 208 0002 82B0     		sub	sp, sp, #8
 209              	.LCFI10:
 210              		.cfi_def_cfa_offset 16
 211 0004 00AF     		add	r7, sp, #0
 212              	.LCFI11:
 213              		.cfi_def_cfa_register 7
 214 0006 7860     		str	r0, [r7, #4]
 215 0008 0A00     		movs	r2, r1
 216 000a FB1C     		adds	r3, r7, #3
 217 000c 1A70     		strb	r2, [r3]
 218              		.loc 2 36 45
 219 000e FB1C     		adds	r3, r7, #3
 220 0010 1B78     		ldrb	r3, [r3]
 221 0012 0322     		movs	r2, #3
 222 0014 1340     		ands	r3, r2
 223 0016 DAB2     		uxtb	r2, r3
 224              		.loc 2 36 43
 225 0018 7B68     		ldr	r3, [r7, #4]
 226 001a 0321     		movs	r1, #3
 227 001c 0A40     		ands	r2, r1
 228 001e 5968     		ldr	r1, [r3, #4]
 229 0020 0320     		movs	r0, #3
 230 0022 8143     		bics	r1, r0
 231 0024 0A43     		orrs	r2, r1
 232 0026 5A60     		str	r2, [r3, #4]
 233              		.loc 2 36 56
 234 0028 7B68     		ldr	r3, [r7, #4]
 235              		.loc 2 36 62
 236 002a 1800     		movs	r0, r3
 237 002c BD46     		mov	sp, r7
 238 002e 02B0     		add	sp, sp, #8
 239              		@ sp needed
 240 0030 80BD     		pop	{r7, pc}
 241              		.cfi_endproc
 242              	.LFE59:
 244              		.section	.text._ZN3mcu3RCC3setENS_8RCC_bits4CFGR9PLLsourceE,"axG",%progbits,_ZN3mcu3RCC3setENS_8RC
 245              		.align	1
 246              		.weak	_ZN3mcu3RCC3setENS_8RCC_bits4CFGR9PLLsourceE
 247              		.syntax unified
 248              		.code	16
 249              		.thumb_func
 250              		.fpu softvfp
 252              	_ZN3mcu3RCC3setENS_8RCC_bits4CFGR9PLLsourceE:
 253              	.LFB60:
ARM GAS  /tmp/ccOFgnnN.s 			page 17


  37:mculib/src/periph/rcc_f0.h **** 	RCC& set (PLLsource     v) { CFGR.PLLSRC = v; return *this; }
 254              		.loc 2 37 7
 255              		.cfi_startproc
 256              		@ args = 0, pretend = 0, frame = 8
 257              		@ frame_needed = 1, uses_anonymous_args = 0
 258 0000 80B5     		push	{r7, lr}
 259              	.LCFI12:
 260              		.cfi_def_cfa_offset 8
 261              		.cfi_offset 7, -8
 262              		.cfi_offset 14, -4
 263 0002 82B0     		sub	sp, sp, #8
 264              	.LCFI13:
 265              		.cfi_def_cfa_offset 16
 266 0004 00AF     		add	r7, sp, #0
 267              	.LCFI14:
 268              		.cfi_def_cfa_register 7
 269 0006 7860     		str	r0, [r7, #4]
 270 0008 0A00     		movs	r2, r1
 271 000a FB1C     		adds	r3, r7, #3
 272 000c 1A70     		strb	r2, [r3]
 273              		.loc 2 37 45
 274 000e FB1C     		adds	r3, r7, #3
 275 0010 1B78     		ldrb	r3, [r3]
 276 0012 0122     		movs	r2, #1
 277 0014 1340     		ands	r3, r2
 278 0016 DAB2     		uxtb	r2, r3
 279              		.loc 2 37 43
 280 0018 7B68     		ldr	r3, [r7, #4]
 281 001a 0121     		movs	r1, #1
 282 001c 0A40     		ands	r2, r1
 283 001e 1204     		lsls	r2, r2, #16
 284 0020 5968     		ldr	r1, [r3, #4]
 285 0022 0448     		ldr	r0, .L14
 286 0024 0140     		ands	r1, r0
 287 0026 0A43     		orrs	r2, r1
 288 0028 5A60     		str	r2, [r3, #4]
 289              		.loc 2 37 56
 290 002a 7B68     		ldr	r3, [r7, #4]
 291              		.loc 2 37 62
 292 002c 1800     		movs	r0, r3
 293 002e BD46     		mov	sp, r7
 294 0030 02B0     		add	sp, sp, #8
 295              		@ sp needed
 296 0032 80BD     		pop	{r7, pc}
 297              	.L15:
 298              		.align	2
 299              	.L14:
 300 0034 FFFFFEFF 		.word	-65537
 301              		.cfi_endproc
 302              	.LFE60:
 304              		.section	.text._ZN3mcu3RCC3setENS_8RCC_bits4CFGR13PLLmultiplierE,"axG",%progbits,_ZN3mcu3RCC3setEN
 305              		.align	1
 306              		.weak	_ZN3mcu3RCC3setENS_8RCC_bits4CFGR13PLLmultiplierE
 307              		.syntax unified
 308              		.code	16
 309              		.thumb_func
 310              		.fpu softvfp
ARM GAS  /tmp/ccOFgnnN.s 			page 18


 312              	_ZN3mcu3RCC3setENS_8RCC_bits4CFGR13PLLmultiplierE:
 313              	.LFB61:
  38:mculib/src/periph/rcc_f0.h **** 	RCC& set (PLLmultiplier v) { CFGR.PLLMUL = v; return *this; }
 314              		.loc 2 38 7
 315              		.cfi_startproc
 316              		@ args = 0, pretend = 0, frame = 8
 317              		@ frame_needed = 1, uses_anonymous_args = 0
 318 0000 80B5     		push	{r7, lr}
 319              	.LCFI15:
 320              		.cfi_def_cfa_offset 8
 321              		.cfi_offset 7, -8
 322              		.cfi_offset 14, -4
 323 0002 82B0     		sub	sp, sp, #8
 324              	.LCFI16:
 325              		.cfi_def_cfa_offset 16
 326 0004 00AF     		add	r7, sp, #0
 327              	.LCFI17:
 328              		.cfi_def_cfa_register 7
 329 0006 7860     		str	r0, [r7, #4]
 330 0008 0A00     		movs	r2, r1
 331 000a FB1C     		adds	r3, r7, #3
 332 000c 1A70     		strb	r2, [r3]
 333              		.loc 2 38 45
 334 000e FB1C     		adds	r3, r7, #3
 335 0010 1B78     		ldrb	r3, [r3]
 336 0012 0F22     		movs	r2, #15
 337 0014 1340     		ands	r3, r2
 338 0016 DAB2     		uxtb	r2, r3
 339              		.loc 2 38 43
 340 0018 7B68     		ldr	r3, [r7, #4]
 341 001a 0F21     		movs	r1, #15
 342 001c 0A40     		ands	r2, r1
 343 001e 9204     		lsls	r2, r2, #18
 344 0020 5968     		ldr	r1, [r3, #4]
 345 0022 0448     		ldr	r0, .L18
 346 0024 0140     		ands	r1, r0
 347 0026 0A43     		orrs	r2, r1
 348 0028 5A60     		str	r2, [r3, #4]
 349              		.loc 2 38 56
 350 002a 7B68     		ldr	r3, [r7, #4]
 351              		.loc 2 38 62
 352 002c 1800     		movs	r0, r3
 353 002e BD46     		mov	sp, r7
 354 0030 02B0     		add	sp, sp, #8
 355              		@ sp needed
 356 0032 80BD     		pop	{r7, pc}
 357              	.L19:
 358              		.align	2
 359              	.L18:
 360 0034 FFFFC3FF 		.word	-3932161
 361              		.cfi_endproc
 362              	.LFE61:
 364              		.section	.text._ZN3mcu3RCC6on_HSEEv,"axG",%progbits,_ZN3mcu3RCC6on_HSEEv,comdat
 365              		.align	1
 366              		.weak	_ZN3mcu3RCC6on_HSEEv
 367              		.syntax unified
 368              		.code	16
ARM GAS  /tmp/ccOFgnnN.s 			page 19


 369              		.thumb_func
 370              		.fpu softvfp
 372              	_ZN3mcu3RCC6on_HSEEv:
 373              	.LFB62:
  39:mculib/src/periph/rcc_f0.h **** 
  40:mculib/src/periph/rcc_f0.h **** 	RCC& on_HSE        () { CR.HSEON = true;         return *this; }
 374              		.loc 2 40 7
 375              		.cfi_startproc
 376              		@ args = 0, pretend = 0, frame = 8
 377              		@ frame_needed = 1, uses_anonymous_args = 0
 378 0000 80B5     		push	{r7, lr}
 379              	.LCFI18:
 380              		.cfi_def_cfa_offset 8
 381              		.cfi_offset 7, -8
 382              		.cfi_offset 14, -4
 383 0002 82B0     		sub	sp, sp, #8
 384              	.LCFI19:
 385              		.cfi_def_cfa_offset 16
 386 0004 00AF     		add	r7, sp, #0
 387              	.LCFI20:
 388              		.cfi_def_cfa_register 7
 389 0006 7860     		str	r0, [r7, #4]
 390              		.loc 2 40 35
 391 0008 7B68     		ldr	r3, [r7, #4]
 392 000a 1A68     		ldr	r2, [r3]
 393 000c 8021     		movs	r1, #128
 394 000e 4902     		lsls	r1, r1, #9
 395 0010 0A43     		orrs	r2, r1
 396 0012 1A60     		str	r2, [r3]
 397              		.loc 2 40 59
 398 0014 7B68     		ldr	r3, [r7, #4]
 399              		.loc 2 40 65
 400 0016 1800     		movs	r0, r3
 401 0018 BD46     		mov	sp, r7
 402 001a 02B0     		add	sp, sp, #8
 403              		@ sp needed
 404 001c 80BD     		pop	{r7, pc}
 405              		.cfi_endproc
 406              	.LFE62:
 408              		.section	.text._ZN3mcu3RCC14wait_HSE_readyEv,"axG",%progbits,_ZN3mcu3RCC14wait_HSE_readyEv,comdat
 409              		.align	1
 410              		.weak	_ZN3mcu3RCC14wait_HSE_readyEv
 411              		.syntax unified
 412              		.code	16
 413              		.thumb_func
 414              		.fpu softvfp
 416              	_ZN3mcu3RCC14wait_HSE_readyEv:
 417              	.LFB63:
  41:mculib/src/periph/rcc_f0.h **** 	RCC& wait_HSE_ready() { while (not CR.HSERDY) {} return *this; }
 418              		.loc 2 41 7
 419              		.cfi_startproc
 420              		@ args = 0, pretend = 0, frame = 8
 421              		@ frame_needed = 1, uses_anonymous_args = 0
 422 0000 80B5     		push	{r7, lr}
 423              	.LCFI21:
 424              		.cfi_def_cfa_offset 8
 425              		.cfi_offset 7, -8
ARM GAS  /tmp/ccOFgnnN.s 			page 20


 426              		.cfi_offset 14, -4
 427 0002 82B0     		sub	sp, sp, #8
 428              	.LCFI22:
 429              		.cfi_def_cfa_offset 16
 430 0004 00AF     		add	r7, sp, #0
 431              	.LCFI23:
 432              		.cfi_def_cfa_register 7
 433 0006 7860     		str	r0, [r7, #4]
 434              	.L24:
 435              		.loc 2 41 40
 436 0008 7B68     		ldr	r3, [r7, #4]
 437 000a 1B68     		ldr	r3, [r3]
 438 000c 9B03     		lsls	r3, r3, #14
 439 000e DB0F     		lsrs	r3, r3, #31
 440 0010 DBB2     		uxtb	r3, r3
 441              		.loc 2 41 33
 442 0012 0122     		movs	r2, #1
 443 0014 5340     		eors	r3, r2
 444 0016 DBB2     		uxtb	r3, r3
 445 0018 002B     		cmp	r3, #0
 446 001a 00D0     		beq	.L23
 447              		.loc 2 41 26
 448 001c F4E7     		b	.L24
 449              	.L23:
 450              		.loc 2 41 59 discriminator 1
 451 001e 7B68     		ldr	r3, [r7, #4]
 452              		.loc 2 41 65 discriminator 1
 453 0020 1800     		movs	r0, r3
 454 0022 BD46     		mov	sp, r7
 455 0024 02B0     		add	sp, sp, #8
 456              		@ sp needed
 457 0026 80BD     		pop	{r7, pc}
 458              		.cfi_endproc
 459              	.LFE63:
 461              		.section	.text._ZN3mcu3RCC6on_PLLEv,"axG",%progbits,_ZN3mcu3RCC6on_PLLEv,comdat
 462              		.align	1
 463              		.weak	_ZN3mcu3RCC6on_PLLEv
 464              		.syntax unified
 465              		.code	16
 466              		.thumb_func
 467              		.fpu softvfp
 469              	_ZN3mcu3RCC6on_PLLEv:
 470              	.LFB64:
  42:mculib/src/periph/rcc_f0.h **** 	RCC& on_PLL        () { CR.PLLON = true;         return *this; }
 471              		.loc 2 42 7
 472              		.cfi_startproc
 473              		@ args = 0, pretend = 0, frame = 8
 474              		@ frame_needed = 1, uses_anonymous_args = 0
 475 0000 80B5     		push	{r7, lr}
 476              	.LCFI24:
 477              		.cfi_def_cfa_offset 8
 478              		.cfi_offset 7, -8
 479              		.cfi_offset 14, -4
 480 0002 82B0     		sub	sp, sp, #8
 481              	.LCFI25:
 482              		.cfi_def_cfa_offset 16
 483 0004 00AF     		add	r7, sp, #0
ARM GAS  /tmp/ccOFgnnN.s 			page 21


 484              	.LCFI26:
 485              		.cfi_def_cfa_register 7
 486 0006 7860     		str	r0, [r7, #4]
 487              		.loc 2 42 35
 488 0008 7B68     		ldr	r3, [r7, #4]
 489 000a 1A68     		ldr	r2, [r3]
 490 000c 8021     		movs	r1, #128
 491 000e 4904     		lsls	r1, r1, #17
 492 0010 0A43     		orrs	r2, r1
 493 0012 1A60     		str	r2, [r3]
 494              		.loc 2 42 59
 495 0014 7B68     		ldr	r3, [r7, #4]
 496              		.loc 2 42 65
 497 0016 1800     		movs	r0, r3
 498 0018 BD46     		mov	sp, r7
 499 001a 02B0     		add	sp, sp, #8
 500              		@ sp needed
 501 001c 80BD     		pop	{r7, pc}
 502              		.cfi_endproc
 503              	.LFE64:
 505              		.section	.text._ZN3mcu3RCC14wait_PLL_readyEv,"axG",%progbits,_ZN3mcu3RCC14wait_PLL_readyEv,comdat
 506              		.align	1
 507              		.weak	_ZN3mcu3RCC14wait_PLL_readyEv
 508              		.syntax unified
 509              		.code	16
 510              		.thumb_func
 511              		.fpu softvfp
 513              	_ZN3mcu3RCC14wait_PLL_readyEv:
 514              	.LFB65:
  43:mculib/src/periph/rcc_f0.h **** 	RCC& wait_PLL_ready() { while (not CR.PLLRDY) {} return *this; }
 515              		.loc 2 43 7
 516              		.cfi_startproc
 517              		@ args = 0, pretend = 0, frame = 8
 518              		@ frame_needed = 1, uses_anonymous_args = 0
 519 0000 80B5     		push	{r7, lr}
 520              	.LCFI27:
 521              		.cfi_def_cfa_offset 8
 522              		.cfi_offset 7, -8
 523              		.cfi_offset 14, -4
 524 0002 82B0     		sub	sp, sp, #8
 525              	.LCFI28:
 526              		.cfi_def_cfa_offset 16
 527 0004 00AF     		add	r7, sp, #0
 528              	.LCFI29:
 529              		.cfi_def_cfa_register 7
 530 0006 7860     		str	r0, [r7, #4]
 531              	.L30:
 532              		.loc 2 43 40
 533 0008 7B68     		ldr	r3, [r7, #4]
 534 000a 1B68     		ldr	r3, [r3]
 535 000c 9B01     		lsls	r3, r3, #6
 536 000e DB0F     		lsrs	r3, r3, #31
 537 0010 DBB2     		uxtb	r3, r3
 538              		.loc 2 43 33
 539 0012 0122     		movs	r2, #1
 540 0014 5340     		eors	r3, r2
 541 0016 DBB2     		uxtb	r3, r3
ARM GAS  /tmp/ccOFgnnN.s 			page 22


 542 0018 002B     		cmp	r3, #0
 543 001a 00D0     		beq	.L29
 544              		.loc 2 43 26
 545 001c F4E7     		b	.L30
 546              	.L29:
 547              		.loc 2 43 59 discriminator 1
 548 001e 7B68     		ldr	r3, [r7, #4]
 549              		.loc 2 43 65 discriminator 1
 550 0020 1800     		movs	r0, r3
 551 0022 BD46     		mov	sp, r7
 552 0024 02B0     		add	sp, sp, #8
 553              		@ sp needed
 554 0026 80BD     		pop	{r7, pc}
 555              		.cfi_endproc
 556              	.LFE65:
 558              		.section	.text._ZN3mcu3RCC13get_APB_clockEv,"axG",%progbits,_ZN3mcu3RCC13get_APB_clockEv,comdat
 559              		.align	1
 560              		.weak	_ZN3mcu3RCC13get_APB_clockEv
 561              		.syntax unified
 562              		.code	16
 563              		.thumb_func
 564              		.fpu softvfp
 566              	_ZN3mcu3RCC13get_APB_clockEv:
 567              	.LFB66:
  44:mculib/src/periph/rcc_f0.h **** 
  45:mculib/src/periph/rcc_f0.h **** 	size_t get_APB_clock()
 568              		.loc 2 45 9
 569              		.cfi_startproc
 570              		@ args = 0, pretend = 0, frame = 16
 571              		@ frame_needed = 1, uses_anonymous_args = 0
 572 0000 80B5     		push	{r7, lr}
 573              	.LCFI30:
 574              		.cfi_def_cfa_offset 8
 575              		.cfi_offset 7, -8
 576              		.cfi_offset 14, -4
 577 0002 84B0     		sub	sp, sp, #16
 578              	.LCFI31:
 579              		.cfi_def_cfa_offset 24
 580 0004 00AF     		add	r7, sp, #0
 581              	.LCFI32:
 582              		.cfi_def_cfa_register 7
 583 0006 7860     		str	r0, [r7, #4]
  46:mculib/src/periph/rcc_f0.h **** 	{
  47:mculib/src/periph/rcc_f0.h **** 		auto v = CFGR.PPRE;
 584              		.loc 2 47 17
 585 0008 7B68     		ldr	r3, [r7, #4]
 586 000a 5B68     		ldr	r3, [r3, #4]
 587 000c 5B05     		lsls	r3, r3, #21
 588 000e 5B0F     		lsrs	r3, r3, #29
 589 0010 DAB2     		uxtb	r2, r3
 590 0012 0F21     		movs	r1, #15
 591 0014 7B18     		adds	r3, r7, r1
 592 0016 1A70     		strb	r2, [r3]
  48:mculib/src/periph/rcc_f0.h **** 		return v == APBprescaler::APBnotdiv ? F_CPU     :
 593              		.loc 2 48 39
 594 0018 0A00     		movs	r2, r1
 595 001a BB18     		adds	r3, r7, r2
ARM GAS  /tmp/ccOFgnnN.s 			page 23


 596 001c 1B78     		ldrb	r3, [r3]
 597 001e 002B     		cmp	r3, #0
 598 0020 13D0     		beq	.L33
 599              		.loc 2 48 39 is_stmt 0 discriminator 1
 600 0022 BB18     		adds	r3, r7, r2
 601 0024 1B78     		ldrb	r3, [r3]
 602 0026 042B     		cmp	r3, #4
 603 0028 0DD0     		beq	.L34
 604              		.loc 2 48 39 discriminator 3
 605 002a BB18     		adds	r3, r7, r2
 606 002c 1B78     		ldrb	r3, [r3]
 607 002e 052B     		cmp	r3, #5
 608 0030 07D0     		beq	.L35
 609              		.loc 2 48 39 discriminator 5
 610 0032 BB18     		adds	r3, r7, r2
 611 0034 1B78     		ldrb	r3, [r3]
 612 0036 062B     		cmp	r3, #6
 613 0038 01D1     		bne	.L36
 614              		.loc 2 48 39 discriminator 7
 615 003a 064B     		ldr	r3, .L42
  49:mculib/src/periph/rcc_f0.h **** 				 v == APBprescaler::APBdiv2   ? F_CPU / 2 :
  50:mculib/src/periph/rcc_f0.h **** 				 v == APBprescaler::APBdiv4   ? F_CPU / 4 :
  51:mculib/src/periph/rcc_f0.h **** 				 v == APBprescaler::APBdiv8   ? F_CPU / 8 :
  52:mculib/src/periph/rcc_f0.h **** 														  F_CPU / 16;
 616              		.loc 2 52 25 is_stmt 1 discriminator 7
 617 003c 06E0     		b	.L41
 618              	.L36:
  48:mculib/src/periph/rcc_f0.h **** 		return v == APBprescaler::APBnotdiv ? F_CPU     :
 619              		.loc 2 48 39 discriminator 8
 620 003e 064B     		ldr	r3, .L42+4
 621              		.loc 2 52 25 discriminator 8
 622 0040 04E0     		b	.L41
 623              	.L35:
  48:mculib/src/periph/rcc_f0.h **** 		return v == APBprescaler::APBnotdiv ? F_CPU     :
 624              		.loc 2 48 39 discriminator 6
 625 0042 064B     		ldr	r3, .L42+8
 626              		.loc 2 52 25 discriminator 6
 627 0044 02E0     		b	.L41
 628              	.L34:
  48:mculib/src/periph/rcc_f0.h **** 		return v == APBprescaler::APBnotdiv ? F_CPU     :
 629              		.loc 2 48 39 discriminator 4
 630 0046 064B     		ldr	r3, .L42+12
 631              		.loc 2 52 25 discriminator 4
 632 0048 00E0     		b	.L41
 633              	.L33:
  48:mculib/src/periph/rcc_f0.h **** 		return v == APBprescaler::APBnotdiv ? F_CPU     :
 634              		.loc 2 48 39 discriminator 2
 635 004a 064B     		ldr	r3, .L42+16
 636              	.L41:
  53:mculib/src/periph/rcc_f0.h **** 	}
 637              		.loc 2 53 2 discriminator 1
 638 004c 1800     		movs	r0, r3
 639 004e BD46     		mov	sp, r7
 640 0050 04B0     		add	sp, sp, #16
 641              		@ sp needed
 642 0052 80BD     		pop	{r7, pc}
 643              	.L43:
ARM GAS  /tmp/ccOFgnnN.s 			page 24


 644              		.align	2
 645              	.L42:
 646 0054 808D5B00 		.word	6000000
 647 0058 C0C62D00 		.word	3000000
 648 005c 001BB700 		.word	12000000
 649 0060 00366E01 		.word	24000000
 650 0064 006CDC02 		.word	48000000
 651              		.cfi_endproc
 652              	.LFE66:
 654              		.section	.text._ZN3mcu3RCC5clockENS_6PeriphE,"axG",%progbits,_ZN3mcu3RCC5clockENS_6PeriphE,comdat
 655              		.align	1
 656              		.weak	_ZN3mcu3RCC5clockENS_6PeriphE
 657              		.syntax unified
 658              		.code	16
 659              		.thumb_func
 660              		.fpu softvfp
 662              	_ZN3mcu3RCC5clockENS_6PeriphE:
 663              	.LFB68:
  54:mculib/src/periph/rcc_f0.h **** 
  55:mculib/src/periph/rcc_f0.h **** 	template<Periph p> void clock_enable()
  56:mculib/src/periph/rcc_f0.h **** 	{
  57:mculib/src/periph/rcc_f0.h **** 		if      constexpr (p == Periph::GPIOA)  AHBENR .IOPAEN  = true;
  58:mculib/src/periph/rcc_f0.h **** 		else if constexpr (p == Periph::GPIOB)  AHBENR .IOPBEN  = true;
  59:mculib/src/periph/rcc_f0.h **** 		else if constexpr (p == Periph::GPIOC)  AHBENR .IOPCEN  = true;
  60:mculib/src/periph/rcc_f0.h **** 		else if constexpr (p == Periph::GPIOD)  AHBENR .IOPDEN  = true;
  61:mculib/src/periph/rcc_f0.h **** 		else if constexpr (p == Periph::GPIOF)  AHBENR .IOPFEN  = true;
  62:mculib/src/periph/rcc_f0.h **** 
  63:mculib/src/periph/rcc_f0.h **** 		else if constexpr (p == Periph::USART1) APB2ENR.USART1EN  = true;
  64:mculib/src/periph/rcc_f0.h **** 
  65:mculib/src/periph/rcc_f0.h **** 		else if constexpr (p == Periph::TIM1)   APB2ENR.TIM1EN  = true;
  66:mculib/src/periph/rcc_f0.h **** 		else if constexpr (p == Periph::TIM3)   APB1ENR.TIM3EN  = true;
  67:mculib/src/periph/rcc_f0.h **** 		else if constexpr (p == Periph::TIM14)  APB1ENR.TIM14EN = true;
  68:mculib/src/periph/rcc_f0.h **** 		else if constexpr (p == Periph::TIM16)  APB2ENR.TIM16EN = true;
  69:mculib/src/periph/rcc_f0.h **** 		else if constexpr (p == Periph::TIM17)  APB2ENR.TIM17EN = true;
  70:mculib/src/periph/rcc_f0.h **** 
  71:mculib/src/periph/rcc_f0.h **** 		else if constexpr (p == Periph::DMA1)         AHBENR.DMAEN = true;
  72:mculib/src/periph/rcc_f0.h **** 		else if constexpr (p == Periph::DMA1_stream1) AHBENR.DMAEN = true;
  73:mculib/src/periph/rcc_f0.h **** 		else if constexpr (p == Periph::DMA1_stream2) AHBENR.DMAEN = true;
  74:mculib/src/periph/rcc_f0.h **** 		else if constexpr (p == Periph::DMA1_stream3) AHBENR.DMAEN = true;
  75:mculib/src/periph/rcc_f0.h **** 		else if constexpr (p == Periph::DMA1_stream4) AHBENR.DMAEN = true;
  76:mculib/src/periph/rcc_f0.h **** 		else if constexpr (p == Periph::DMA1_stream5) AHBENR.DMAEN = true;
  77:mculib/src/periph/rcc_f0.h **** 
  78:mculib/src/periph/rcc_f0.h **** 		else if constexpr (p == Periph::ADC1)   APB2ENR.ADC1EN = true;
  79:mculib/src/periph/rcc_f0.h **** 		
  80:mculib/src/periph/rcc_f0.h ****         else static_assert ( always_false_v<decltype(p)>, " clock_enable");
  81:mculib/src/periph/rcc_f0.h **** 	}
  82:mculib/src/periph/rcc_f0.h **** 
  83:mculib/src/periph/rcc_f0.h **** 	auto clock (Periph p) { return get_APB_clock(); }
 664              		.loc 2 83 7
 665              		.cfi_startproc
 666              		@ args = 0, pretend = 0, frame = 8
 667              		@ frame_needed = 1, uses_anonymous_args = 0
 668 0000 80B5     		push	{r7, lr}
 669              	.LCFI33:
 670              		.cfi_def_cfa_offset 8
 671              		.cfi_offset 7, -8
 672              		.cfi_offset 14, -4
ARM GAS  /tmp/ccOFgnnN.s 			page 25


 673 0002 82B0     		sub	sp, sp, #8
 674              	.LCFI34:
 675              		.cfi_def_cfa_offset 16
 676 0004 00AF     		add	r7, sp, #0
 677              	.LCFI35:
 678              		.cfi_def_cfa_register 7
 679 0006 7860     		str	r0, [r7, #4]
 680 0008 3960     		str	r1, [r7]
 681              		.loc 2 83 46
 682 000a 7B68     		ldr	r3, [r7, #4]
 683 000c 1800     		movs	r0, r3
 684 000e FFF7FEFF 		bl	_ZN3mcu3RCC13get_APB_clockEv
 685 0012 0300     		movs	r3, r0
 686              		.loc 2 83 50
 687 0014 1800     		movs	r0, r3
 688 0016 BD46     		mov	sp, r7
 689 0018 02B0     		add	sp, sp, #8
 690              		@ sp needed
 691 001a 80BD     		pop	{r7, pc}
 692              		.cfi_endproc
 693              	.LFE68:
 695              		.section	.text._ZN3mcu5FLASH4lockEv,"axG",%progbits,_ZN3mcu5FLASH4lockEv,comdat
 696              		.align	1
 697              		.weak	_ZN3mcu5FLASH4lockEv
 698              		.syntax unified
 699              		.code	16
 700              		.thumb_func
 701              		.fpu softvfp
 703              	_ZN3mcu5FLASH4lockEv:
 704              	.LFB72:
 705              		.file 3 "mculib/src/periph/flash_f0.h"
   1:mculib/src/periph/flash_f0.h **** #pragma once
   2:mculib/src/periph/flash_f0.h **** 
   3:mculib/src/periph/flash_f0.h **** #include "bits_flash_f0.h"
   4:mculib/src/periph/flash_f0.h **** 
   5:mculib/src/periph/flash_f0.h **** namespace mcu {
   6:mculib/src/periph/flash_f0.h **** 
   7:mculib/src/periph/flash_f0.h **** class FLASH {
   8:mculib/src/periph/flash_f0.h **** protected:
   9:mculib/src/periph/flash_f0.h ****    volatile FLASH_bits::ACR ACR;      // FLASH access control register, offset: 0x00
  10:mculib/src/periph/flash_f0.h ****    volatile uint32_t        KEYR;     // FLASH key register,            offset: 0x04
  11:mculib/src/periph/flash_f0.h ****    volatile uint32_t        OPTKEYR;  // FLASH OPT key register,        offset: 0x08
  12:mculib/src/periph/flash_f0.h ****    volatile FLASH_bits::SR  SR;       // FLASH status register,         offset: 0x0C
  13:mculib/src/periph/flash_f0.h ****    volatile FLASH_bits::CR  CR;       // FLASH control register,        offset: 0x10
  14:mculib/src/periph/flash_f0.h ****    volatile uint32_t        AR;       // FLASH address register,        offset: 0x14
  15:mculib/src/periph/flash_f0.h ****    volatile uint32_t        RESERVED; //  Reserved,                             0x18
  16:mculib/src/periph/flash_f0.h ****    volatile uint32_t        OBR;      // FLASH option bytes register,   offset: 0x1C
  17:mculib/src/periph/flash_f0.h ****    volatile uint32_t        WRPR;     // FLASH option bytes register,   offset: 0x20
  18:mculib/src/periph/flash_f0.h **** public:
  19:mculib/src/periph/flash_f0.h ****    using CMSIS_type   = FLASH_TypeDef;
  20:mculib/src/periph/flash_f0.h ****    using Latency      = FLASH_bits::ACR::Latency;
  21:mculib/src/periph/flash_f0.h ****    ///   ,    
  22:mculib/src/periph/flash_f0.h ****    enum Sector { _0, _1, _2, _3, _4, _5, _6, _7, _8, _9,
  23:mculib/src/periph/flash_f0.h ****                 _10,_11,_12,_13,_14,_15,_16,_17,_18,_19,
  24:mculib/src/periph/flash_f0.h ****                 _20,_21,_22,_23,_24,_25,_26,_27,_28,_29,
  25:mculib/src/periph/flash_f0.h ****                 _30,_31
  26:mculib/src/periph/flash_f0.h ****    };
ARM GAS  /tmp/ccOFgnnN.s 			page 26


  27:mculib/src/periph/flash_f0.h **** 
  28:mculib/src/periph/flash_f0.h ****    auto& like_CMSIS() { return *reinterpret_cast<CMSIS_type*>(this); }
  29:mculib/src/periph/flash_f0.h **** 
  30:mculib/src/periph/flash_f0.h ****    FLASH& set (Latency v)            { ACR.LATENCY = v;    return *this; }
  31:mculib/src/periph/flash_f0.h ****    FLASH& lock()                     { CR.LOCK     = true; return *this; }
 706              		.loc 3 31 11
 707              		.cfi_startproc
 708              		@ args = 0, pretend = 0, frame = 8
 709              		@ frame_needed = 1, uses_anonymous_args = 0
 710 0000 80B5     		push	{r7, lr}
 711              	.LCFI36:
 712              		.cfi_def_cfa_offset 8
 713              		.cfi_offset 7, -8
 714              		.cfi_offset 14, -4
 715 0002 82B0     		sub	sp, sp, #8
 716              	.LCFI37:
 717              		.cfi_def_cfa_offset 16
 718 0004 00AF     		add	r7, sp, #0
 719              	.LCFI38:
 720              		.cfi_def_cfa_register 7
 721 0006 7860     		str	r0, [r7, #4]
 722              		.loc 3 31 52
 723 0008 7B68     		ldr	r3, [r7, #4]
 724 000a 1A69     		ldr	r2, [r3, #16]
 725 000c 8021     		movs	r1, #128
 726 000e 0A43     		orrs	r2, r1
 727 0010 1A61     		str	r2, [r3, #16]
 728              		.loc 3 31 68
 729 0012 7B68     		ldr	r3, [r7, #4]
 730              		.loc 3 31 74
 731 0014 1800     		movs	r0, r3
 732 0016 BD46     		mov	sp, r7
 733 0018 02B0     		add	sp, sp, #8
 734              		@ sp needed
 735 001a 80BD     		pop	{r7, pc}
 736              		.cfi_endproc
 737              	.LFE72:
 739              		.section	.text._ZN3mcu5FLASH7is_lockEv,"axG",%progbits,_ZN3mcu5FLASH7is_lockEv,comdat
 740              		.align	1
 741              		.weak	_ZN3mcu5FLASH7is_lockEv
 742              		.syntax unified
 743              		.code	16
 744              		.thumb_func
 745              		.fpu softvfp
 747              	_ZN3mcu5FLASH7is_lockEv:
 748              	.LFB73:
  32:mculib/src/periph/flash_f0.h ****    bool   is_lock()                  { return CR.LOCK;                   }
 749              		.loc 3 32 11
 750              		.cfi_startproc
 751              		@ args = 0, pretend = 0, frame = 8
 752              		@ frame_needed = 1, uses_anonymous_args = 0
 753 0000 80B5     		push	{r7, lr}
 754              	.LCFI39:
 755              		.cfi_def_cfa_offset 8
 756              		.cfi_offset 7, -8
 757              		.cfi_offset 14, -4
 758 0002 82B0     		sub	sp, sp, #8
ARM GAS  /tmp/ccOFgnnN.s 			page 27


 759              	.LCFI40:
 760              		.cfi_def_cfa_offset 16
 761 0004 00AF     		add	r7, sp, #0
 762              	.LCFI41:
 763              		.cfi_def_cfa_register 7
 764 0006 7860     		str	r0, [r7, #4]
 765              		.loc 3 32 50
 766 0008 7B68     		ldr	r3, [r7, #4]
 767 000a 1B69     		ldr	r3, [r3, #16]
 768 000c 1B06     		lsls	r3, r3, #24
 769 000e DB0F     		lsrs	r3, r3, #31
 770 0010 DBB2     		uxtb	r3, r3
 771              		.loc 3 32 74
 772 0012 1800     		movs	r0, r3
 773 0014 BD46     		mov	sp, r7
 774 0016 02B0     		add	sp, sp, #8
 775              		@ sp needed
 776 0018 80BD     		pop	{r7, pc}
 777              		.cfi_endproc
 778              	.LFE73:
 780              		.section	.text._ZN3mcu5FLASH12set_progModeEv,"axG",%progbits,_ZN3mcu5FLASH12set_progModeEv,comdat
 781              		.align	1
 782              		.weak	_ZN3mcu5FLASH12set_progModeEv
 783              		.syntax unified
 784              		.code	16
 785              		.thumb_func
 786              		.fpu softvfp
 788              	_ZN3mcu5FLASH12set_progModeEv:
 789              	.LFB74:
  33:mculib/src/periph/flash_f0.h ****    FLASH& unlock();
  34:mculib/src/periph/flash_f0.h ****    FLASH& set_progMode()             { CR.PER = false; CR.PG = true; return *this; }
 790              		.loc 3 34 11
 791              		.cfi_startproc
 792              		@ args = 0, pretend = 0, frame = 8
 793              		@ frame_needed = 1, uses_anonymous_args = 0
 794 0000 80B5     		push	{r7, lr}
 795              	.LCFI42:
 796              		.cfi_def_cfa_offset 8
 797              		.cfi_offset 7, -8
 798              		.cfi_offset 14, -4
 799 0002 82B0     		sub	sp, sp, #8
 800              	.LCFI43:
 801              		.cfi_def_cfa_offset 16
 802 0004 00AF     		add	r7, sp, #0
 803              	.LCFI44:
 804              		.cfi_def_cfa_register 7
 805 0006 7860     		str	r0, [r7, #4]
 806              		.loc 3 34 47
 807 0008 7B68     		ldr	r3, [r7, #4]
 808 000a 1A69     		ldr	r2, [r3, #16]
 809 000c 0221     		movs	r1, #2
 810 000e 8A43     		bics	r2, r1
 811 0010 1A61     		str	r2, [r3, #16]
 812              		.loc 3 34 62
 813 0012 7B68     		ldr	r3, [r7, #4]
 814 0014 1A69     		ldr	r2, [r3, #16]
 815 0016 0121     		movs	r1, #1
ARM GAS  /tmp/ccOFgnnN.s 			page 28


 816 0018 0A43     		orrs	r2, r1
 817 001a 1A61     		str	r2, [r3, #16]
 818              		.loc 3 34 78
 819 001c 7B68     		ldr	r3, [r7, #4]
 820              		.loc 3 34 84
 821 001e 1800     		movs	r0, r3
 822 0020 BD46     		mov	sp, r7
 823 0022 02B0     		add	sp, sp, #8
 824              		@ sp needed
 825 0024 80BD     		pop	{r7, pc}
 826              		.cfi_endproc
 827              	.LFE74:
 829              		.section	.text._ZN3mcu5FLASH12is_endOfProgEv,"axG",%progbits,_ZN3mcu5FLASH12is_endOfProgEv,comdat
 830              		.align	1
 831              		.weak	_ZN3mcu5FLASH12is_endOfProgEv
 832              		.syntax unified
 833              		.code	16
 834              		.thumb_func
 835              		.fpu softvfp
 837              	_ZN3mcu5FLASH12is_endOfProgEv:
 838              	.LFB75:
  35:mculib/src/periph/flash_f0.h ****    bool   is_endOfProg()             { return SR.EOP;                    }
 839              		.loc 3 35 11
 840              		.cfi_startproc
 841              		@ args = 0, pretend = 0, frame = 8
 842              		@ frame_needed = 1, uses_anonymous_args = 0
 843 0000 80B5     		push	{r7, lr}
 844              	.LCFI45:
 845              		.cfi_def_cfa_offset 8
 846              		.cfi_offset 7, -8
 847              		.cfi_offset 14, -4
 848 0002 82B0     		sub	sp, sp, #8
 849              	.LCFI46:
 850              		.cfi_def_cfa_offset 16
 851 0004 00AF     		add	r7, sp, #0
 852              	.LCFI47:
 853              		.cfi_def_cfa_register 7
 854 0006 7860     		str	r0, [r7, #4]
 855              		.loc 3 35 50
 856 0008 7B68     		ldr	r3, [r7, #4]
 857 000a DB68     		ldr	r3, [r3, #12]
 858 000c 9B06     		lsls	r3, r3, #26
 859 000e DB0F     		lsrs	r3, r3, #31
 860 0010 DBB2     		uxtb	r3, r3
 861              		.loc 3 35 74
 862 0012 1800     		movs	r0, r3
 863 0014 BD46     		mov	sp, r7
 864 0016 02B0     		add	sp, sp, #8
 865              		@ sp needed
 866 0018 80BD     		pop	{r7, pc}
 867              		.cfi_endproc
 868              	.LFE75:
 870              		.section	.text._ZN3mcu5FLASH20clear_flag_endOfProgEv,"axG",%progbits,_ZN3mcu5FLASH20clear_flag_end
 871              		.align	1
 872              		.weak	_ZN3mcu5FLASH20clear_flag_endOfProgEv
 873              		.syntax unified
 874              		.code	16
ARM GAS  /tmp/ccOFgnnN.s 			page 29


 875              		.thumb_func
 876              		.fpu softvfp
 878              	_ZN3mcu5FLASH20clear_flag_endOfProgEv:
 879              	.LFB76:
  36:mculib/src/periph/flash_f0.h ****    FLASH& clear_flag_endOfProg()     { SR.EOP      = true; return *this; }
 880              		.loc 3 36 11
 881              		.cfi_startproc
 882              		@ args = 0, pretend = 0, frame = 8
 883              		@ frame_needed = 1, uses_anonymous_args = 0
 884 0000 80B5     		push	{r7, lr}
 885              	.LCFI48:
 886              		.cfi_def_cfa_offset 8
 887              		.cfi_offset 7, -8
 888              		.cfi_offset 14, -4
 889 0002 82B0     		sub	sp, sp, #8
 890              	.LCFI49:
 891              		.cfi_def_cfa_offset 16
 892 0004 00AF     		add	r7, sp, #0
 893              	.LCFI50:
 894              		.cfi_def_cfa_register 7
 895 0006 7860     		str	r0, [r7, #4]
 896              		.loc 3 36 52
 897 0008 7B68     		ldr	r3, [r7, #4]
 898 000a DA68     		ldr	r2, [r3, #12]
 899 000c 2021     		movs	r1, #32
 900 000e 0A43     		orrs	r2, r1
 901 0010 DA60     		str	r2, [r3, #12]
 902              		.loc 3 36 68
 903 0012 7B68     		ldr	r3, [r7, #4]
 904              		.loc 3 36 74
 905 0014 1800     		movs	r0, r3
 906 0016 BD46     		mov	sp, r7
 907 0018 02B0     		add	sp, sp, #8
 908              		@ sp needed
 909 001a 80BD     		pop	{r7, pc}
 910              		.cfi_endproc
 911              	.LFE76:
 913              		.section	.text._ZN3mcu5FLASH7is_busyEv,"axG",%progbits,_ZN3mcu5FLASH7is_busyEv,comdat
 914              		.align	1
 915              		.weak	_ZN3mcu5FLASH7is_busyEv
 916              		.syntax unified
 917              		.code	16
 918              		.thumb_func
 919              		.fpu softvfp
 921              	_ZN3mcu5FLASH7is_busyEv:
 922              	.LFB77:
  37:mculib/src/periph/flash_f0.h ****    bool   is_busy()                  { return SR.BSY;                    }
 923              		.loc 3 37 11
 924              		.cfi_startproc
 925              		@ args = 0, pretend = 0, frame = 8
 926              		@ frame_needed = 1, uses_anonymous_args = 0
 927 0000 80B5     		push	{r7, lr}
 928              	.LCFI51:
 929              		.cfi_def_cfa_offset 8
 930              		.cfi_offset 7, -8
 931              		.cfi_offset 14, -4
 932 0002 82B0     		sub	sp, sp, #8
ARM GAS  /tmp/ccOFgnnN.s 			page 30


 933              	.LCFI52:
 934              		.cfi_def_cfa_offset 16
 935 0004 00AF     		add	r7, sp, #0
 936              	.LCFI53:
 937              		.cfi_def_cfa_register 7
 938 0006 7860     		str	r0, [r7, #4]
 939              		.loc 3 37 50
 940 0008 7B68     		ldr	r3, [r7, #4]
 941 000a DB68     		ldr	r3, [r3, #12]
 942 000c DB07     		lsls	r3, r3, #31
 943 000e DB0F     		lsrs	r3, r3, #31
 944 0010 DBB2     		uxtb	r3, r3
 945              		.loc 3 37 74
 946 0012 1800     		movs	r0, r3
 947 0014 BD46     		mov	sp, r7
 948 0016 02B0     		add	sp, sp, #8
 949              		@ sp needed
 950 0018 80BD     		pop	{r7, pc}
 951              		.cfi_endproc
 952              	.LFE77:
 954              		.section	.text._ZN3mcu5FLASH7addressENS0_6SectorE,"axG",%progbits,_ZN3mcu5FLASH7addressENS0_6Secto
 955              		.align	1
 956              		.weak	_ZN3mcu5FLASH7addressENS0_6SectorE
 957              		.syntax unified
 958              		.code	16
 959              		.thumb_func
 960              		.fpu softvfp
 962              	_ZN3mcu5FLASH7addressENS0_6SectorE:
 963              	.LFB79:
  38:mculib/src/periph/flash_f0.h ****    FLASH& en_interrupt_endOfProg()   { CR.EOPIE    = true; return *this; }
  39:mculib/src/periph/flash_f0.h ****    FLASH& start_erase(Sector);
  40:mculib/src/periph/flash_f0.h ****    static constexpr size_t address(Sector s) { return 0x08000000 + 1024 * s; }
 964              		.loc 3 40 28
 965              		.cfi_startproc
 966              		@ args = 0, pretend = 0, frame = 8
 967              		@ frame_needed = 1, uses_anonymous_args = 0
 968 0000 80B5     		push	{r7, lr}
 969              	.LCFI54:
 970              		.cfi_def_cfa_offset 8
 971              		.cfi_offset 7, -8
 972              		.cfi_offset 14, -4
 973 0002 82B0     		sub	sp, sp, #8
 974              	.LCFI55:
 975              		.cfi_def_cfa_offset 16
 976 0004 00AF     		add	r7, sp, #0
 977              	.LCFI56:
 978              		.cfi_def_cfa_register 7
 979 0006 0200     		movs	r2, r0
 980 0008 FB1D     		adds	r3, r7, #7
 981 000a 1A70     		strb	r2, [r3]
 982              		.loc 3 40 75
 983 000c FB1D     		adds	r3, r7, #7
 984 000e 1B78     		ldrb	r3, [r3]
 985              		.loc 3 40 66
 986 0010 8022     		movs	r2, #128
 987 0012 9202     		lsls	r2, r2, #10
 988 0014 9446     		mov	ip, r2
ARM GAS  /tmp/ccOFgnnN.s 			page 31


 989 0016 6344     		add	r3, r3, ip
 990 0018 9B02     		lsls	r3, r3, #10
 991              		.loc 3 40 78
 992 001a 1800     		movs	r0, r3
 993 001c BD46     		mov	sp, r7
 994 001e 02B0     		add	sp, sp, #8
 995              		@ sp needed
 996 0020 80BD     		pop	{r7, pc}
 997              		.cfi_endproc
 998              	.LFE79:
 1000              		.section	.text._ZN3mcu5FLASH6unlockEv,"ax",%progbits
 1001              		.align	1
 1002              		.global	_ZN3mcu5FLASH6unlockEv
 1003              		.syntax unified
 1004              		.code	16
 1005              		.thumb_func
 1006              		.fpu softvfp
 1008              	_ZN3mcu5FLASH6unlockEv:
 1009              	.LFB83:
  41:mculib/src/periph/flash_f0.h **** 
  42:mculib/src/periph/flash_f0.h ****    template<Sector> FLASH& start_erase();
  43:mculib/src/periph/flash_f0.h **** 
  44:mculib/src/periph/flash_f0.h ****    template<Sector s> static constexpr size_t address() { return 0x08000000 + 1024 * s; }
  45:mculib/src/periph/flash_f0.h ****    template<Sector>   static constexpr size_t size()    { return 1024; }
  46:mculib/src/periph/flash_f0.h **** };
  47:mculib/src/periph/flash_f0.h **** 
  48:mculib/src/periph/flash_f0.h **** 
  49:mculib/src/periph/flash_f0.h **** #if not defined(USE_MOCK_FLASH)
  50:mculib/src/periph/flash_f0.h **** template<Periph p> std::enable_if_t<p == Periph::FLASH, FLASH&> make_reference() { return *reinterp
  51:mculib/src/periph/flash_f0.h **** #endif
  52:mculib/src/periph/flash_f0.h **** 
  53:mculib/src/periph/flash_f0.h **** 
  54:mculib/src/periph/flash_f0.h **** 
  55:mculib/src/periph/flash_f0.h **** 
  56:mculib/src/periph/flash_f0.h **** 
  57:mculib/src/periph/flash_f0.h **** 
  58:mculib/src/periph/flash_f0.h **** 
  59:mculib/src/periph/flash_f0.h **** FLASH& FLASH::unlock()
  60:mculib/src/periph/flash_f0.h **** {
 1010              		.loc 3 60 1
 1011              		.cfi_startproc
 1012              		@ args = 0, pretend = 0, frame = 16
 1013              		@ frame_needed = 1, uses_anonymous_args = 0
 1014 0000 80B5     		push	{r7, lr}
 1015              	.LCFI57:
 1016              		.cfi_def_cfa_offset 8
 1017              		.cfi_offset 7, -8
 1018              		.cfi_offset 14, -4
 1019 0002 84B0     		sub	sp, sp, #16
 1020              	.LCFI58:
 1021              		.cfi_def_cfa_offset 24
 1022 0004 00AF     		add	r7, sp, #0
 1023              	.LCFI59:
 1024              		.cfi_def_cfa_register 7
 1025 0006 7860     		str	r0, [r7, #4]
  61:mculib/src/periph/flash_f0.h ****    constexpr uint32_t Key1 = 0x45670123;
 1026              		.loc 3 61 23
ARM GAS  /tmp/ccOFgnnN.s 			page 32


 1027 0008 0A4B     		ldr	r3, .L63
 1028 000a FB60     		str	r3, [r7, #12]
  62:mculib/src/periph/flash_f0.h ****    constexpr uint32_t Key2 = 0xCDEF89AB;
 1029              		.loc 3 62 23
 1030 000c 0A4B     		ldr	r3, .L63+4
 1031 000e BB60     		str	r3, [r7, #8]
  63:mculib/src/periph/flash_f0.h ****    if (is_lock()) {
 1032              		.loc 3 63 15
 1033 0010 7B68     		ldr	r3, [r7, #4]
 1034 0012 1800     		movs	r0, r3
 1035 0014 FFF7FEFF 		bl	_ZN3mcu5FLASH7is_lockEv
 1036 0018 031E     		subs	r3, r0, #0
 1037              		.loc 3 63 4
 1038 001a 05D0     		beq	.L61
  64:mculib/src/periph/flash_f0.h ****       KEYR = Key1;
 1039              		.loc 3 64 12
 1040 001c 7B68     		ldr	r3, [r7, #4]
 1041 001e 054A     		ldr	r2, .L63
 1042 0020 5A60     		str	r2, [r3, #4]
  65:mculib/src/periph/flash_f0.h ****       IF_TEST_WAIT_MS(10);
  66:mculib/src/periph/flash_f0.h ****       KEYR = Key2;
 1043              		.loc 3 66 12
 1044 0022 7B68     		ldr	r3, [r7, #4]
 1045 0024 044A     		ldr	r2, .L63+4
 1046 0026 5A60     		str	r2, [r3, #4]
 1047              	.L61:
  67:mculib/src/periph/flash_f0.h ****    }
  68:mculib/src/periph/flash_f0.h ****    return *this;
 1048              		.loc 3 68 12
 1049 0028 7B68     		ldr	r3, [r7, #4]
  69:mculib/src/periph/flash_f0.h **** }
 1050              		.loc 3 69 1
 1051 002a 1800     		movs	r0, r3
 1052 002c BD46     		mov	sp, r7
 1053 002e 04B0     		add	sp, sp, #16
 1054              		@ sp needed
 1055 0030 80BD     		pop	{r7, pc}
 1056              	.L64:
 1057 0032 C046     		.align	2
 1058              	.L63:
 1059 0034 23016745 		.word	1164378403
 1060 0038 AB89EFCD 		.word	-839939669
 1061              		.cfi_endproc
 1062              	.LFE83:
 1064              		.section	.text._ZN3mcu5FLASH11start_eraseENS0_6SectorE,"ax",%progbits
 1065              		.align	1
 1066              		.global	_ZN3mcu5FLASH11start_eraseENS0_6SectorE
 1067              		.syntax unified
 1068              		.code	16
 1069              		.thumb_func
 1070              		.fpu softvfp
 1072              	_ZN3mcu5FLASH11start_eraseENS0_6SectorE:
 1073              	.LFB85:
  70:mculib/src/periph/flash_f0.h **** 
  71:mculib/src/periph/flash_f0.h **** 
  72:mculib/src/periph/flash_f0.h **** template<FLASH::Sector s>
  73:mculib/src/periph/flash_f0.h **** FLASH& FLASH::start_erase()
ARM GAS  /tmp/ccOFgnnN.s 			page 33


  74:mculib/src/periph/flash_f0.h **** {
  75:mculib/src/periph/flash_f0.h ****    CR.PG   = false;
  76:mculib/src/periph/flash_f0.h ****    CR.PER  = true;
  77:mculib/src/periph/flash_f0.h ****    IF_TEST_WAIT_MS(1);
  78:mculib/src/periph/flash_f0.h ****    AR = address<s>();
  79:mculib/src/periph/flash_f0.h ****    IF_TEST_WAIT_MS(1);
  80:mculib/src/periph/flash_f0.h ****    CR.STRT = true;
  81:mculib/src/periph/flash_f0.h ****    return *this;
  82:mculib/src/periph/flash_f0.h **** }
  83:mculib/src/periph/flash_f0.h **** 
  84:mculib/src/periph/flash_f0.h **** FLASH& FLASH::start_erase(FLASH::Sector s)
  85:mculib/src/periph/flash_f0.h **** {
 1074              		.loc 3 85 1
 1075              		.cfi_startproc
 1076              		@ args = 0, pretend = 0, frame = 8
 1077              		@ frame_needed = 1, uses_anonymous_args = 0
 1078 0000 80B5     		push	{r7, lr}
 1079              	.LCFI60:
 1080              		.cfi_def_cfa_offset 8
 1081              		.cfi_offset 7, -8
 1082              		.cfi_offset 14, -4
 1083 0002 82B0     		sub	sp, sp, #8
 1084              	.LCFI61:
 1085              		.cfi_def_cfa_offset 16
 1086 0004 00AF     		add	r7, sp, #0
 1087              	.LCFI62:
 1088              		.cfi_def_cfa_register 7
 1089 0006 7860     		str	r0, [r7, #4]
 1090 0008 0A00     		movs	r2, r1
 1091 000a FB1C     		adds	r3, r7, #3
 1092 000c 1A70     		strb	r2, [r3]
  86:mculib/src/periph/flash_f0.h ****    CR.PG   = false;
 1093              		.loc 3 86 12
 1094 000e 7B68     		ldr	r3, [r7, #4]
 1095 0010 1A69     		ldr	r2, [r3, #16]
 1096 0012 0121     		movs	r1, #1
 1097 0014 8A43     		bics	r2, r1
 1098 0016 1A61     		str	r2, [r3, #16]
  87:mculib/src/periph/flash_f0.h ****    CR.PER  = true;
 1099              		.loc 3 87 12
 1100 0018 7B68     		ldr	r3, [r7, #4]
 1101 001a 1A69     		ldr	r2, [r3, #16]
 1102 001c 0221     		movs	r1, #2
 1103 001e 0A43     		orrs	r2, r1
 1104 0020 1A61     		str	r2, [r3, #16]
  88:mculib/src/periph/flash_f0.h ****    IF_TEST_WAIT_MS(1);
  89:mculib/src/periph/flash_f0.h ****    AR = address(s);
 1105              		.loc 3 89 16
 1106 0022 FB1C     		adds	r3, r7, #3
 1107 0024 1B78     		ldrb	r3, [r3]
 1108 0026 1800     		movs	r0, r3
 1109 0028 FFF7FEFF 		bl	_ZN3mcu5FLASH7addressENS0_6SectorE
 1110 002c 0200     		movs	r2, r0
 1111              		.loc 3 89 7
 1112 002e 7B68     		ldr	r3, [r7, #4]
 1113 0030 5A61     		str	r2, [r3, #20]
  90:mculib/src/periph/flash_f0.h ****    IF_TEST_WAIT_MS(1);
ARM GAS  /tmp/ccOFgnnN.s 			page 34


  91:mculib/src/periph/flash_f0.h ****    CR.STRT = true;
 1114              		.loc 3 91 12
 1115 0032 7B68     		ldr	r3, [r7, #4]
 1116 0034 1A69     		ldr	r2, [r3, #16]
 1117 0036 4021     		movs	r1, #64
 1118 0038 0A43     		orrs	r2, r1
 1119 003a 1A61     		str	r2, [r3, #16]
  92:mculib/src/periph/flash_f0.h ****    return *this;
 1120              		.loc 3 92 12
 1121 003c 7B68     		ldr	r3, [r7, #4]
  93:mculib/src/periph/flash_f0.h **** }
 1122              		.loc 3 93 1
 1123 003e 1800     		movs	r0, r3
 1124 0040 BD46     		mov	sp, r7
 1125 0042 02B0     		add	sp, sp, #8
 1126              		@ sp needed
 1127 0044 80BD     		pop	{r7, pc}
 1128              		.cfi_endproc
 1129              	.LFE85:
 1131              		.section	.text._Zli2_sy,"axG",%progbits,_Zli2_sy,comdat
 1132              		.align	1
 1133              		.weak	_Zli2_sy
 1134              		.syntax unified
 1135              		.code	16
 1136              		.thumb_func
 1137              		.fpu softvfp
 1139              	_Zli2_sy:
 1140              	.LFB90:
 1141              		.file 4 "mculib/src/literals.h"
   1:mculib/src/literals.h **** #pragma once
   2:mculib/src/literals.h **** 
   3:mculib/src/literals.h **** 
   4:mculib/src/literals.h **** constexpr uint32_t operator "" _Hz       (unsigned long long val) { return val; }
   5:mculib/src/literals.h **** constexpr uint32_t operator "" _kHz      (unsigned long long val) { return val * 1000; }
   6:mculib/src/literals.h **** constexpr uint32_t operator "" _MHz      (unsigned long long val) { return val * 1'000'000; }
   7:mculib/src/literals.h **** constexpr uint32_t operator "" _ms       (unsigned long long val) { return val; }
   8:mculib/src/literals.h **** constexpr uint32_t operator "" _s        (unsigned long long val) { return val * 1000; }
 1142              		.loc 4 8 67
 1143              		.cfi_startproc
 1144              		@ args = 0, pretend = 0, frame = 8
 1145              		@ frame_needed = 1, uses_anonymous_args = 0
 1146 0000 80B5     		push	{r7, lr}
 1147              	.LCFI63:
 1148              		.cfi_def_cfa_offset 8
 1149              		.cfi_offset 7, -8
 1150              		.cfi_offset 14, -4
 1151 0002 82B0     		sub	sp, sp, #8
 1152              	.LCFI64:
 1153              		.cfi_def_cfa_offset 16
 1154 0004 00AF     		add	r7, sp, #0
 1155              	.LCFI65:
 1156              		.cfi_def_cfa_register 7
 1157 0006 3860     		str	r0, [r7]
 1158 0008 7960     		str	r1, [r7, #4]
 1159              		.loc 4 8 82
 1160 000a 3A68     		ldr	r2, [r7]
 1161 000c 1300     		movs	r3, r2
ARM GAS  /tmp/ccOFgnnN.s 			page 35


 1162 000e 5B01     		lsls	r3, r3, #5
 1163 0010 9B1A     		subs	r3, r3, r2
 1164 0012 9B00     		lsls	r3, r3, #2
 1165 0014 9B18     		adds	r3, r3, r2
 1166 0016 DB00     		lsls	r3, r3, #3
 1167              		.loc 4 8 88
 1168 0018 1800     		movs	r0, r3
 1169 001a BD46     		mov	sp, r7
 1170 001c 02B0     		add	sp, sp, #8
 1171              		@ sp needed
 1172 001e 80BD     		pop	{r7, pc}
 1173              		.cfi_endproc
 1174              	.LFE90:
 1176              		.section	.text._ZN3mcu4GPIO3setEj,"axG",%progbits,_ZN3mcu4GPIO3setEj,comdat
 1177              		.align	1
 1178              		.weak	_ZN3mcu4GPIO3setEj
 1179              		.syntax unified
 1180              		.code	16
 1181              		.thumb_func
 1182              		.fpu softvfp
 1184              	_ZN3mcu4GPIO3setEj:
 1185              	.LFB102:
 1186              		.file 5 "mculib/src/periph/gpio_f0_f4_f7.h"
   1:mculib/src/periph/gpio_f0_f4_f7.h **** #pragma once
   2:mculib/src/periph/gpio_f0_f4_f7.h **** 
   3:mculib/src/periph/gpio_f0_f4_f7.h **** #include "bits_gpio_f0_f4_f7.h"
   4:mculib/src/periph/gpio_f0_f4_f7.h **** 
   5:mculib/src/periph/gpio_f0_f4_f7.h **** namespace mcu
   6:mculib/src/periph/gpio_f0_f4_f7.h **** {
   7:mculib/src/periph/gpio_f0_f4_f7.h **** 
   8:mculib/src/periph/gpio_f0_f4_f7.h **** enum class PinMode
   9:mculib/src/periph/gpio_f0_f4_f7.h **** {
  10:mculib/src/periph/gpio_f0_f4_f7.h ****    Input,
  11:mculib/src/periph/gpio_f0_f4_f7.h ****    Output,
  12:mculib/src/periph/gpio_f0_f4_f7.h ****    Analog,
  13:mculib/src/periph/gpio_f0_f4_f7.h ****    Alternate_0,
  14:mculib/src/periph/gpio_f0_f4_f7.h ****    Alternate_1,
  15:mculib/src/periph/gpio_f0_f4_f7.h ****    Alternate_2,
  16:mculib/src/periph/gpio_f0_f4_f7.h ****    Alternate_3,
  17:mculib/src/periph/gpio_f0_f4_f7.h ****    Alternate_4,
  18:mculib/src/periph/gpio_f0_f4_f7.h ****    Alternate_5,
  19:mculib/src/periph/gpio_f0_f4_f7.h ****    Alternate_6,
  20:mculib/src/periph/gpio_f0_f4_f7.h ****    Alternate_7,
  21:mculib/src/periph/gpio_f0_f4_f7.h **** #if defined(STM32F4) or defined(STM32F7)
  22:mculib/src/periph/gpio_f0_f4_f7.h ****    Alternate_8,
  23:mculib/src/periph/gpio_f0_f4_f7.h ****    Alternate_9,
  24:mculib/src/periph/gpio_f0_f4_f7.h ****    Alternate_10,
  25:mculib/src/periph/gpio_f0_f4_f7.h ****    Alternate_11,
  26:mculib/src/periph/gpio_f0_f4_f7.h ****    Alternate_12,
  27:mculib/src/periph/gpio_f0_f4_f7.h ****    Alternate_13,
  28:mculib/src/periph/gpio_f0_f4_f7.h ****    Alternate_14,
  29:mculib/src/periph/gpio_f0_f4_f7.h ****    Alternate_15,
  30:mculib/src/periph/gpio_f0_f4_f7.h **** #endif
  31:mculib/src/periph/gpio_f0_f4_f7.h **** #if defined(STM32F4)
  32:mculib/src/periph/gpio_f0_f4_f7.h ****    USART1_TX = Alternate_7,
  33:mculib/src/periph/gpio_f0_f4_f7.h ****    USART1_RX = Alternate_7,
  34:mculib/src/periph/gpio_f0_f4_f7.h ****    USART2_TX = Alternate_7,
ARM GAS  /tmp/ccOFgnnN.s 			page 36


  35:mculib/src/periph/gpio_f0_f4_f7.h ****    USART2_RX = Alternate_7,
  36:mculib/src/periph/gpio_f0_f4_f7.h ****    USART3_TX = Alternate_7,
  37:mculib/src/periph/gpio_f0_f4_f7.h ****    USART3_RX = Alternate_7,
  38:mculib/src/periph/gpio_f0_f4_f7.h ****    USART4_TX = Alternate_8,
  39:mculib/src/periph/gpio_f0_f4_f7.h ****    USART4_RX = Alternate_8,
  40:mculib/src/periph/gpio_f0_f4_f7.h ****    USART5_TX = Alternate_8,
  41:mculib/src/periph/gpio_f0_f4_f7.h ****    USART5_RX = Alternate_8,
  42:mculib/src/periph/gpio_f0_f4_f7.h ****    USART6_TX = Alternate_8,
  43:mculib/src/periph/gpio_f0_f4_f7.h ****    USART6_RX = Alternate_8,
  44:mculib/src/periph/gpio_f0_f4_f7.h **** #endif
  45:mculib/src/periph/gpio_f0_f4_f7.h **** };
  46:mculib/src/periph/gpio_f0_f4_f7.h **** 
  47:mculib/src/periph/gpio_f0_f4_f7.h **** class GPIO
  48:mculib/src/periph/gpio_f0_f4_f7.h **** {
  49:mculib/src/periph/gpio_f0_f4_f7.h ****    volatile GPIO_bits::MODER MODER;     // mode register,                offset: 0x00
  50:mculib/src/periph/gpio_f0_f4_f7.h ****    volatile GPIO_bits::OTYPER OTYPER;   // output type register,         offset: 0x04
  51:mculib/src/periph/gpio_f0_f4_f7.h ****    volatile GPIO_bits::OSPEEDR OSPEEDR; // output speed register,        offset: 0x08
  52:mculib/src/periph/gpio_f0_f4_f7.h ****    volatile GPIO_bits::PUPDR PUPDR;     // pull-up/pull-down register,   offset: 0x0C
  53:mculib/src/periph/gpio_f0_f4_f7.h ****    volatile GPIO_bits::DR IDR;          // input data register,          offset: 0x10
  54:mculib/src/periph/gpio_f0_f4_f7.h ****    volatile GPIO_bits::DR ODR;          // output data register,         offset: 0x14
  55:mculib/src/periph/gpio_f0_f4_f7.h ****    volatile uint32_t BSRR;              // bit set/reset register,       offset: 0x18
  56:mculib/src/periph/gpio_f0_f4_f7.h ****    volatile uint32_t LCKR;              // configuration lock register,  offset: 0x1C
  57:mculib/src/periph/gpio_f0_f4_f7.h ****    volatile GPIO_bits::AFR AFR;         // alternate function registers, offset: 0x20-0x24
  58:mculib/src/periph/gpio_f0_f4_f7.h **** #if defined(STM32F0)
  59:mculib/src/periph/gpio_f0_f4_f7.h ****    volatile uint32_t BRR; // bit reset register,           offset: 0x28
  60:mculib/src/periph/gpio_f0_f4_f7.h **** #endif
  61:mculib/src/periph/gpio_f0_f4_f7.h **** 
  62:mculib/src/periph/gpio_f0_f4_f7.h **** public:
  63:mculib/src/periph/gpio_f0_f4_f7.h ****    using CMSIS_type = GPIO_TypeDef;
  64:mculib/src/periph/gpio_f0_f4_f7.h ****    using Mode = GPIO_bits::MODER::Mode;
  65:mculib/src/periph/gpio_f0_f4_f7.h ****    using AF = GPIO_bits::AFR::AF;
  66:mculib/src/periph/gpio_f0_f4_f7.h **** 
  67:mculib/src/periph/gpio_f0_f4_f7.h ****    auto &like_CMSIS() { return *reinterpret_cast<CMSIS_type *>(this); }
  68:mculib/src/periph/gpio_f0_f4_f7.h **** 
  69:mculib/src/periph/gpio_f0_f4_f7.h ****    void set(size_t n) { BSRR = (1 << n); }
 1187              		.loc 5 69 9
 1188              		.cfi_startproc
 1189              		@ args = 0, pretend = 0, frame = 8
 1190              		@ frame_needed = 1, uses_anonymous_args = 0
 1191 0000 80B5     		push	{r7, lr}
 1192              	.LCFI66:
 1193              		.cfi_def_cfa_offset 8
 1194              		.cfi_offset 7, -8
 1195              		.cfi_offset 14, -4
 1196 0002 82B0     		sub	sp, sp, #8
 1197              	.LCFI67:
 1198              		.cfi_def_cfa_offset 16
 1199 0004 00AF     		add	r7, sp, #0
 1200              	.LCFI68:
 1201              		.cfi_def_cfa_register 7
 1202 0006 7860     		str	r0, [r7, #4]
 1203 0008 3960     		str	r1, [r7]
 1204              		.loc 5 69 35
 1205 000a 0122     		movs	r2, #1
 1206 000c 3B68     		ldr	r3, [r7]
 1207 000e 9A40     		lsls	r2, r2, r3
 1208 0010 1300     		movs	r3, r2
ARM GAS  /tmp/ccOFgnnN.s 			page 37


 1209 0012 1A00     		movs	r2, r3
 1210              		.loc 5 69 30
 1211 0014 7B68     		ldr	r3, [r7, #4]
 1212 0016 9A61     		str	r2, [r3, #24]
 1213              		.loc 5 69 42
 1214 0018 C046     		nop
 1215 001a BD46     		mov	sp, r7
 1216 001c 02B0     		add	sp, sp, #8
 1217              		@ sp needed
 1218 001e 80BD     		pop	{r7, pc}
 1219              		.cfi_endproc
 1220              	.LFE102:
 1222              		.section	.text._ZN3mcu4GPIO5clearEj,"axG",%progbits,_ZN3mcu4GPIO5clearEj,comdat
 1223              		.align	1
 1224              		.weak	_ZN3mcu4GPIO5clearEj
 1225              		.syntax unified
 1226              		.code	16
 1227              		.thumb_func
 1228              		.fpu softvfp
 1230              	_ZN3mcu4GPIO5clearEj:
 1231              	.LFB103:
  70:mculib/src/periph/gpio_f0_f4_f7.h ****    void clear(size_t n) { BSRR = (1 << (n + 16)); }
 1232              		.loc 5 70 9
 1233              		.cfi_startproc
 1234              		@ args = 0, pretend = 0, frame = 8
 1235              		@ frame_needed = 1, uses_anonymous_args = 0
 1236 0000 80B5     		push	{r7, lr}
 1237              	.LCFI69:
 1238              		.cfi_def_cfa_offset 8
 1239              		.cfi_offset 7, -8
 1240              		.cfi_offset 14, -4
 1241 0002 82B0     		sub	sp, sp, #8
 1242              	.LCFI70:
 1243              		.cfi_def_cfa_offset 16
 1244 0004 00AF     		add	r7, sp, #0
 1245              	.LCFI71:
 1246              		.cfi_def_cfa_register 7
 1247 0006 7860     		str	r0, [r7, #4]
 1248 0008 3960     		str	r1, [r7]
 1249              		.loc 5 70 43
 1250 000a 3B68     		ldr	r3, [r7]
 1251 000c 1033     		adds	r3, r3, #16
 1252              		.loc 5 70 37
 1253 000e 0122     		movs	r2, #1
 1254 0010 9A40     		lsls	r2, r2, r3
 1255 0012 1300     		movs	r3, r2
 1256 0014 1A00     		movs	r2, r3
 1257              		.loc 5 70 32
 1258 0016 7B68     		ldr	r3, [r7, #4]
 1259 0018 9A61     		str	r2, [r3, #24]
 1260              		.loc 5 70 51
 1261 001a C046     		nop
 1262 001c BD46     		mov	sp, r7
 1263 001e 02B0     		add	sp, sp, #8
 1264              		@ sp needed
 1265 0020 80BD     		pop	{r7, pc}
 1266              		.cfi_endproc
ARM GAS  /tmp/ccOFgnnN.s 			page 38


 1267              	.LFE103:
 1269              		.section	.text._ZnwjPv,"axG",%progbits,_ZnwjPv,comdat
 1270              		.align	1
 1271              		.weak	_ZnwjPv
 1272              		.syntax unified
 1273              		.code	16
 1274              		.thumb_func
 1275              		.fpu softvfp
 1277              	_ZnwjPv:
 1278              	.LFB376:
 1279              		.file 6 "/usr/include/newlib/c++/9.2.1/new"
   1:/usr/include/newlib/c++/9.2.1/new **** // The -*- C++ -*- dynamic memory management header.
   2:/usr/include/newlib/c++/9.2.1/new **** 
   3:/usr/include/newlib/c++/9.2.1/new **** // Copyright (C) 1994-2019 Free Software Foundation, Inc.
   4:/usr/include/newlib/c++/9.2.1/new **** 
   5:/usr/include/newlib/c++/9.2.1/new **** // This file is part of GCC.
   6:/usr/include/newlib/c++/9.2.1/new **** //
   7:/usr/include/newlib/c++/9.2.1/new **** // GCC is free software; you can redistribute it and/or modify
   8:/usr/include/newlib/c++/9.2.1/new **** // it under the terms of the GNU General Public License as published by
   9:/usr/include/newlib/c++/9.2.1/new **** // the Free Software Foundation; either version 3, or (at your option)
  10:/usr/include/newlib/c++/9.2.1/new **** // any later version.
  11:/usr/include/newlib/c++/9.2.1/new **** // 
  12:/usr/include/newlib/c++/9.2.1/new **** // GCC is distributed in the hope that it will be useful,
  13:/usr/include/newlib/c++/9.2.1/new **** // but WITHOUT ANY WARRANTY; without even the implied warranty of
  14:/usr/include/newlib/c++/9.2.1/new **** // MERCHANTABILITY or FITNESS FOR A PARTICULAR PURPOSE.  See the
  15:/usr/include/newlib/c++/9.2.1/new **** // GNU General Public License for more details.
  16:/usr/include/newlib/c++/9.2.1/new **** // 
  17:/usr/include/newlib/c++/9.2.1/new **** // Under Section 7 of GPL version 3, you are granted additional
  18:/usr/include/newlib/c++/9.2.1/new **** // permissions described in the GCC Runtime Library Exception, version
  19:/usr/include/newlib/c++/9.2.1/new **** // 3.1, as published by the Free Software Foundation.
  20:/usr/include/newlib/c++/9.2.1/new **** 
  21:/usr/include/newlib/c++/9.2.1/new **** // You should have received a copy of the GNU General Public License and
  22:/usr/include/newlib/c++/9.2.1/new **** // a copy of the GCC Runtime Library Exception along with this program;
  23:/usr/include/newlib/c++/9.2.1/new **** // see the files COPYING3 and COPYING.RUNTIME respectively.  If not, see
  24:/usr/include/newlib/c++/9.2.1/new **** // <http://www.gnu.org/licenses/>.
  25:/usr/include/newlib/c++/9.2.1/new **** 
  26:/usr/include/newlib/c++/9.2.1/new **** /** @file new
  27:/usr/include/newlib/c++/9.2.1/new ****  *  This is a Standard C++ Library header.
  28:/usr/include/newlib/c++/9.2.1/new ****  *
  29:/usr/include/newlib/c++/9.2.1/new ****  *  The header @c new defines several functions to manage dynamic memory and
  30:/usr/include/newlib/c++/9.2.1/new ****  *  handling memory allocation errors; see
  31:/usr/include/newlib/c++/9.2.1/new ****  *  http://gcc.gnu.org/onlinedocs/libstdc++/18_support/howto.html#4 for more.
  32:/usr/include/newlib/c++/9.2.1/new ****  */
  33:/usr/include/newlib/c++/9.2.1/new **** 
  34:/usr/include/newlib/c++/9.2.1/new **** #ifndef _NEW
  35:/usr/include/newlib/c++/9.2.1/new **** #define _NEW
  36:/usr/include/newlib/c++/9.2.1/new **** 
  37:/usr/include/newlib/c++/9.2.1/new **** #pragma GCC system_header
  38:/usr/include/newlib/c++/9.2.1/new **** 
  39:/usr/include/newlib/c++/9.2.1/new **** #include <bits/c++config.h>
  40:/usr/include/newlib/c++/9.2.1/new **** #include <exception>
  41:/usr/include/newlib/c++/9.2.1/new **** 
  42:/usr/include/newlib/c++/9.2.1/new **** #pragma GCC visibility push(default)
  43:/usr/include/newlib/c++/9.2.1/new **** 
  44:/usr/include/newlib/c++/9.2.1/new **** extern "C++" {
  45:/usr/include/newlib/c++/9.2.1/new **** 
  46:/usr/include/newlib/c++/9.2.1/new **** namespace std 
ARM GAS  /tmp/ccOFgnnN.s 			page 39


  47:/usr/include/newlib/c++/9.2.1/new **** {
  48:/usr/include/newlib/c++/9.2.1/new ****   /**
  49:/usr/include/newlib/c++/9.2.1/new ****    *  @brief  Exception possibly thrown by @c new.
  50:/usr/include/newlib/c++/9.2.1/new ****    *  @ingroup exceptions
  51:/usr/include/newlib/c++/9.2.1/new ****    *
  52:/usr/include/newlib/c++/9.2.1/new ****    *  @c bad_alloc (or classes derived from it) is used to report allocation
  53:/usr/include/newlib/c++/9.2.1/new ****    *  errors from the throwing forms of @c new.  */
  54:/usr/include/newlib/c++/9.2.1/new ****   class bad_alloc : public exception 
  55:/usr/include/newlib/c++/9.2.1/new ****   {
  56:/usr/include/newlib/c++/9.2.1/new ****   public:
  57:/usr/include/newlib/c++/9.2.1/new ****     bad_alloc() throw() { }
  58:/usr/include/newlib/c++/9.2.1/new **** 
  59:/usr/include/newlib/c++/9.2.1/new **** #if __cplusplus >= 201103L
  60:/usr/include/newlib/c++/9.2.1/new ****     bad_alloc(const bad_alloc&) = default;
  61:/usr/include/newlib/c++/9.2.1/new ****     bad_alloc& operator=(const bad_alloc&) = default;
  62:/usr/include/newlib/c++/9.2.1/new **** #endif
  63:/usr/include/newlib/c++/9.2.1/new **** 
  64:/usr/include/newlib/c++/9.2.1/new ****     // This declaration is not useless:
  65:/usr/include/newlib/c++/9.2.1/new ****     // http://gcc.gnu.org/onlinedocs/gcc-3.0.2/gcc_6.html#SEC118
  66:/usr/include/newlib/c++/9.2.1/new ****     virtual ~bad_alloc() throw();
  67:/usr/include/newlib/c++/9.2.1/new **** 
  68:/usr/include/newlib/c++/9.2.1/new ****     // See comment in eh_exception.cc.
  69:/usr/include/newlib/c++/9.2.1/new ****     virtual const char* what() const throw();
  70:/usr/include/newlib/c++/9.2.1/new ****   };
  71:/usr/include/newlib/c++/9.2.1/new **** 
  72:/usr/include/newlib/c++/9.2.1/new **** #if __cplusplus >= 201103L
  73:/usr/include/newlib/c++/9.2.1/new ****   class bad_array_new_length : public bad_alloc
  74:/usr/include/newlib/c++/9.2.1/new ****   {
  75:/usr/include/newlib/c++/9.2.1/new ****   public:
  76:/usr/include/newlib/c++/9.2.1/new ****     bad_array_new_length() throw() { }
  77:/usr/include/newlib/c++/9.2.1/new **** 
  78:/usr/include/newlib/c++/9.2.1/new ****     // This declaration is not useless:
  79:/usr/include/newlib/c++/9.2.1/new ****     // http://gcc.gnu.org/onlinedocs/gcc-3.0.2/gcc_6.html#SEC118
  80:/usr/include/newlib/c++/9.2.1/new ****     virtual ~bad_array_new_length() throw();
  81:/usr/include/newlib/c++/9.2.1/new **** 
  82:/usr/include/newlib/c++/9.2.1/new ****     // See comment in eh_exception.cc.
  83:/usr/include/newlib/c++/9.2.1/new ****     virtual const char* what() const throw();
  84:/usr/include/newlib/c++/9.2.1/new ****   };
  85:/usr/include/newlib/c++/9.2.1/new **** #endif
  86:/usr/include/newlib/c++/9.2.1/new **** 
  87:/usr/include/newlib/c++/9.2.1/new **** #if __cpp_aligned_new
  88:/usr/include/newlib/c++/9.2.1/new ****   enum class align_val_t: size_t {};
  89:/usr/include/newlib/c++/9.2.1/new **** #endif
  90:/usr/include/newlib/c++/9.2.1/new **** 
  91:/usr/include/newlib/c++/9.2.1/new ****   struct nothrow_t
  92:/usr/include/newlib/c++/9.2.1/new ****   {
  93:/usr/include/newlib/c++/9.2.1/new **** #if __cplusplus >= 201103L
  94:/usr/include/newlib/c++/9.2.1/new ****     explicit nothrow_t() = default;
  95:/usr/include/newlib/c++/9.2.1/new **** #endif
  96:/usr/include/newlib/c++/9.2.1/new ****   };
  97:/usr/include/newlib/c++/9.2.1/new **** 
  98:/usr/include/newlib/c++/9.2.1/new ****   extern const nothrow_t nothrow;
  99:/usr/include/newlib/c++/9.2.1/new **** 
 100:/usr/include/newlib/c++/9.2.1/new ****   /** If you write your own error handler to be called by @c new, it must
 101:/usr/include/newlib/c++/9.2.1/new ****    *  be of this type.  */
 102:/usr/include/newlib/c++/9.2.1/new ****   typedef void (*new_handler)();
 103:/usr/include/newlib/c++/9.2.1/new **** 
ARM GAS  /tmp/ccOFgnnN.s 			page 40


 104:/usr/include/newlib/c++/9.2.1/new ****   /// Takes a replacement handler as the argument, returns the
 105:/usr/include/newlib/c++/9.2.1/new ****   /// previous handler.
 106:/usr/include/newlib/c++/9.2.1/new ****   new_handler set_new_handler(new_handler) throw();
 107:/usr/include/newlib/c++/9.2.1/new **** 
 108:/usr/include/newlib/c++/9.2.1/new **** #if __cplusplus >= 201103L
 109:/usr/include/newlib/c++/9.2.1/new ****   /// Return the current new handler.
 110:/usr/include/newlib/c++/9.2.1/new ****   new_handler get_new_handler() noexcept;
 111:/usr/include/newlib/c++/9.2.1/new **** #endif
 112:/usr/include/newlib/c++/9.2.1/new **** } // namespace std
 113:/usr/include/newlib/c++/9.2.1/new **** 
 114:/usr/include/newlib/c++/9.2.1/new **** //@{
 115:/usr/include/newlib/c++/9.2.1/new **** /** These are replaceable signatures:
 116:/usr/include/newlib/c++/9.2.1/new ****  *  - normal single new and delete (no arguments, throw @c bad_alloc on error)
 117:/usr/include/newlib/c++/9.2.1/new ****  *  - normal array new and delete (same)
 118:/usr/include/newlib/c++/9.2.1/new ****  *  - @c nothrow single new and delete (take a @c nothrow argument, return
 119:/usr/include/newlib/c++/9.2.1/new ****  *    @c NULL on error)
 120:/usr/include/newlib/c++/9.2.1/new ****  *  - @c nothrow array new and delete (same)
 121:/usr/include/newlib/c++/9.2.1/new ****  *
 122:/usr/include/newlib/c++/9.2.1/new ****  *  Placement new and delete signatures (take a memory address argument,
 123:/usr/include/newlib/c++/9.2.1/new ****  *  does nothing) may not be replaced by a user's program.
 124:/usr/include/newlib/c++/9.2.1/new **** */
 125:/usr/include/newlib/c++/9.2.1/new **** _GLIBCXX_NODISCARD void* operator new(std::size_t) _GLIBCXX_THROW (std::bad_alloc)
 126:/usr/include/newlib/c++/9.2.1/new ****   __attribute__((__externally_visible__));
 127:/usr/include/newlib/c++/9.2.1/new **** _GLIBCXX_NODISCARD void* operator new[](std::size_t) _GLIBCXX_THROW (std::bad_alloc)
 128:/usr/include/newlib/c++/9.2.1/new ****   __attribute__((__externally_visible__));
 129:/usr/include/newlib/c++/9.2.1/new **** void operator delete(void*) _GLIBCXX_USE_NOEXCEPT
 130:/usr/include/newlib/c++/9.2.1/new ****   __attribute__((__externally_visible__));
 131:/usr/include/newlib/c++/9.2.1/new **** void operator delete[](void*) _GLIBCXX_USE_NOEXCEPT
 132:/usr/include/newlib/c++/9.2.1/new ****   __attribute__((__externally_visible__));
 133:/usr/include/newlib/c++/9.2.1/new **** #if __cpp_sized_deallocation
 134:/usr/include/newlib/c++/9.2.1/new **** void operator delete(void*, std::size_t) _GLIBCXX_USE_NOEXCEPT
 135:/usr/include/newlib/c++/9.2.1/new ****   __attribute__((__externally_visible__));
 136:/usr/include/newlib/c++/9.2.1/new **** void operator delete[](void*, std::size_t) _GLIBCXX_USE_NOEXCEPT
 137:/usr/include/newlib/c++/9.2.1/new ****   __attribute__((__externally_visible__));
 138:/usr/include/newlib/c++/9.2.1/new **** #endif
 139:/usr/include/newlib/c++/9.2.1/new **** _GLIBCXX_NODISCARD void* operator new(std::size_t, const std::nothrow_t&) _GLIBCXX_USE_NOEXCEPT
 140:/usr/include/newlib/c++/9.2.1/new ****   __attribute__((__externally_visible__, __malloc__));
 141:/usr/include/newlib/c++/9.2.1/new **** _GLIBCXX_NODISCARD void* operator new[](std::size_t, const std::nothrow_t&) _GLIBCXX_USE_NOEXCEPT
 142:/usr/include/newlib/c++/9.2.1/new ****   __attribute__((__externally_visible__, __malloc__));
 143:/usr/include/newlib/c++/9.2.1/new **** void operator delete(void*, const std::nothrow_t&) _GLIBCXX_USE_NOEXCEPT
 144:/usr/include/newlib/c++/9.2.1/new ****   __attribute__((__externally_visible__));
 145:/usr/include/newlib/c++/9.2.1/new **** void operator delete[](void*, const std::nothrow_t&) _GLIBCXX_USE_NOEXCEPT
 146:/usr/include/newlib/c++/9.2.1/new ****   __attribute__((__externally_visible__));
 147:/usr/include/newlib/c++/9.2.1/new **** #if __cpp_aligned_new
 148:/usr/include/newlib/c++/9.2.1/new **** _GLIBCXX_NODISCARD void* operator new(std::size_t, std::align_val_t)
 149:/usr/include/newlib/c++/9.2.1/new ****   __attribute__((__externally_visible__));
 150:/usr/include/newlib/c++/9.2.1/new **** _GLIBCXX_NODISCARD void* operator new(std::size_t, std::align_val_t, const std::nothrow_t&)
 151:/usr/include/newlib/c++/9.2.1/new ****   _GLIBCXX_USE_NOEXCEPT __attribute__((__externally_visible__, __malloc__));
 152:/usr/include/newlib/c++/9.2.1/new **** void operator delete(void*, std::align_val_t)
 153:/usr/include/newlib/c++/9.2.1/new ****   _GLIBCXX_USE_NOEXCEPT __attribute__((__externally_visible__));
 154:/usr/include/newlib/c++/9.2.1/new **** void operator delete(void*, std::align_val_t, const std::nothrow_t&)
 155:/usr/include/newlib/c++/9.2.1/new ****   _GLIBCXX_USE_NOEXCEPT __attribute__((__externally_visible__));
 156:/usr/include/newlib/c++/9.2.1/new **** _GLIBCXX_NODISCARD void* operator new[](std::size_t, std::align_val_t)
 157:/usr/include/newlib/c++/9.2.1/new ****   __attribute__((__externally_visible__));
 158:/usr/include/newlib/c++/9.2.1/new **** _GLIBCXX_NODISCARD void* operator new[](std::size_t, std::align_val_t, const std::nothrow_t&)
 159:/usr/include/newlib/c++/9.2.1/new ****   _GLIBCXX_USE_NOEXCEPT __attribute__((__externally_visible__, __malloc__));
 160:/usr/include/newlib/c++/9.2.1/new **** void operator delete[](void*, std::align_val_t)
ARM GAS  /tmp/ccOFgnnN.s 			page 41


 161:/usr/include/newlib/c++/9.2.1/new ****   _GLIBCXX_USE_NOEXCEPT __attribute__((__externally_visible__));
 162:/usr/include/newlib/c++/9.2.1/new **** void operator delete[](void*, std::align_val_t, const std::nothrow_t&)
 163:/usr/include/newlib/c++/9.2.1/new ****   _GLIBCXX_USE_NOEXCEPT __attribute__((__externally_visible__));
 164:/usr/include/newlib/c++/9.2.1/new **** #if __cpp_sized_deallocation
 165:/usr/include/newlib/c++/9.2.1/new **** void operator delete(void*, std::size_t, std::align_val_t)
 166:/usr/include/newlib/c++/9.2.1/new ****   _GLIBCXX_USE_NOEXCEPT __attribute__((__externally_visible__));
 167:/usr/include/newlib/c++/9.2.1/new **** void operator delete[](void*, std::size_t, std::align_val_t)
 168:/usr/include/newlib/c++/9.2.1/new ****   _GLIBCXX_USE_NOEXCEPT __attribute__((__externally_visible__));
 169:/usr/include/newlib/c++/9.2.1/new **** #endif // __cpp_sized_deallocation
 170:/usr/include/newlib/c++/9.2.1/new **** #endif // __cpp_aligned_new
 171:/usr/include/newlib/c++/9.2.1/new **** 
 172:/usr/include/newlib/c++/9.2.1/new **** // Default placement versions of operator new.
 173:/usr/include/newlib/c++/9.2.1/new **** _GLIBCXX_NODISCARD inline void* operator new(std::size_t, void* __p) _GLIBCXX_USE_NOEXCEPT
 174:/usr/include/newlib/c++/9.2.1/new **** { return __p; }
 1280              		.loc 6 174 1
 1281              		.cfi_startproc
 1282              		@ args = 0, pretend = 0, frame = 8
 1283              		@ frame_needed = 1, uses_anonymous_args = 0
 1284 0000 80B5     		push	{r7, lr}
 1285              	.LCFI72:
 1286              		.cfi_def_cfa_offset 8
 1287              		.cfi_offset 7, -8
 1288              		.cfi_offset 14, -4
 1289 0002 82B0     		sub	sp, sp, #8
 1290              	.LCFI73:
 1291              		.cfi_def_cfa_offset 16
 1292 0004 00AF     		add	r7, sp, #0
 1293              	.LCFI74:
 1294              		.cfi_def_cfa_register 7
 1295 0006 7860     		str	r0, [r7, #4]
 1296 0008 3960     		str	r1, [r7]
 1297              		.loc 6 174 10
 1298 000a 3B68     		ldr	r3, [r7]
 1299              		.loc 6 174 15
 1300 000c 1800     		movs	r0, r3
 1301 000e BD46     		mov	sp, r7
 1302 0010 02B0     		add	sp, sp, #8
 1303              		@ sp needed
 1304 0012 80BD     		pop	{r7, pc}
 1305              		.cfi_endproc
 1306              	.LFE376:
 1308              		.section	.text._ZL20__gthread_key_deletei,"ax",%progbits
 1309              		.align	1
 1310              		.syntax unified
 1311              		.code	16
 1312              		.thumb_func
 1313              		.fpu softvfp
 1315              	_ZL20__gthread_key_deletei:
 1316              	.LFB605:
 1317              		.file 7 "/usr/include/newlib/c++/9.2.1/arm-none-eabi/thumb/v6-m/nofp/bits/gthr-default.h"
   1:/usr/include/newlib/c++/9.2.1/arm-none-eabi/thumb/v6-m/nofp/bits/gthr-default.h **** /* Threads compatibility routines for libgcc2 and libobjc.  */
   2:/usr/include/newlib/c++/9.2.1/arm-none-eabi/thumb/v6-m/nofp/bits/gthr-default.h **** /* Compile this one with gcc.  */
   3:/usr/include/newlib/c++/9.2.1/arm-none-eabi/thumb/v6-m/nofp/bits/gthr-default.h **** /* Copyright (C) 1997-2019 Free Software Foundation, Inc.
   4:/usr/include/newlib/c++/9.2.1/arm-none-eabi/thumb/v6-m/nofp/bits/gthr-default.h **** 
   5:/usr/include/newlib/c++/9.2.1/arm-none-eabi/thumb/v6-m/nofp/bits/gthr-default.h **** This file is part of GCC.
   6:/usr/include/newlib/c++/9.2.1/arm-none-eabi/thumb/v6-m/nofp/bits/gthr-default.h **** 
   7:/usr/include/newlib/c++/9.2.1/arm-none-eabi/thumb/v6-m/nofp/bits/gthr-default.h **** GCC is free software; you can redistribute it and/or modify it under
ARM GAS  /tmp/ccOFgnnN.s 			page 42


   8:/usr/include/newlib/c++/9.2.1/arm-none-eabi/thumb/v6-m/nofp/bits/gthr-default.h **** the terms of the GNU General Public License as published by the Free
   9:/usr/include/newlib/c++/9.2.1/arm-none-eabi/thumb/v6-m/nofp/bits/gthr-default.h **** Software Foundation; either version 3, or (at your option) any later
  10:/usr/include/newlib/c++/9.2.1/arm-none-eabi/thumb/v6-m/nofp/bits/gthr-default.h **** version.
  11:/usr/include/newlib/c++/9.2.1/arm-none-eabi/thumb/v6-m/nofp/bits/gthr-default.h **** 
  12:/usr/include/newlib/c++/9.2.1/arm-none-eabi/thumb/v6-m/nofp/bits/gthr-default.h **** GCC is distributed in the hope that it will be useful, but WITHOUT ANY
  13:/usr/include/newlib/c++/9.2.1/arm-none-eabi/thumb/v6-m/nofp/bits/gthr-default.h **** WARRANTY; without even the implied warranty of MERCHANTABILITY or
  14:/usr/include/newlib/c++/9.2.1/arm-none-eabi/thumb/v6-m/nofp/bits/gthr-default.h **** FITNESS FOR A PARTICULAR PURPOSE.  See the GNU General Public License
  15:/usr/include/newlib/c++/9.2.1/arm-none-eabi/thumb/v6-m/nofp/bits/gthr-default.h **** for more details.
  16:/usr/include/newlib/c++/9.2.1/arm-none-eabi/thumb/v6-m/nofp/bits/gthr-default.h **** 
  17:/usr/include/newlib/c++/9.2.1/arm-none-eabi/thumb/v6-m/nofp/bits/gthr-default.h **** Under Section 7 of GPL version 3, you are granted additional
  18:/usr/include/newlib/c++/9.2.1/arm-none-eabi/thumb/v6-m/nofp/bits/gthr-default.h **** permissions described in the GCC Runtime Library Exception, version
  19:/usr/include/newlib/c++/9.2.1/arm-none-eabi/thumb/v6-m/nofp/bits/gthr-default.h **** 3.1, as published by the Free Software Foundation.
  20:/usr/include/newlib/c++/9.2.1/arm-none-eabi/thumb/v6-m/nofp/bits/gthr-default.h **** 
  21:/usr/include/newlib/c++/9.2.1/arm-none-eabi/thumb/v6-m/nofp/bits/gthr-default.h **** You should have received a copy of the GNU General Public License and
  22:/usr/include/newlib/c++/9.2.1/arm-none-eabi/thumb/v6-m/nofp/bits/gthr-default.h **** a copy of the GCC Runtime Library Exception along with this program;
  23:/usr/include/newlib/c++/9.2.1/arm-none-eabi/thumb/v6-m/nofp/bits/gthr-default.h **** see the files COPYING3 and COPYING.RUNTIME respectively.  If not, see
  24:/usr/include/newlib/c++/9.2.1/arm-none-eabi/thumb/v6-m/nofp/bits/gthr-default.h **** <http://www.gnu.org/licenses/>.  */
  25:/usr/include/newlib/c++/9.2.1/arm-none-eabi/thumb/v6-m/nofp/bits/gthr-default.h **** 
  26:/usr/include/newlib/c++/9.2.1/arm-none-eabi/thumb/v6-m/nofp/bits/gthr-default.h **** #ifndef _GLIBCXX_GCC_GTHR_SINGLE_H
  27:/usr/include/newlib/c++/9.2.1/arm-none-eabi/thumb/v6-m/nofp/bits/gthr-default.h **** #define _GLIBCXX_GCC_GTHR_SINGLE_H
  28:/usr/include/newlib/c++/9.2.1/arm-none-eabi/thumb/v6-m/nofp/bits/gthr-default.h **** 
  29:/usr/include/newlib/c++/9.2.1/arm-none-eabi/thumb/v6-m/nofp/bits/gthr-default.h **** /* Just provide compatibility for mutex handling.  */
  30:/usr/include/newlib/c++/9.2.1/arm-none-eabi/thumb/v6-m/nofp/bits/gthr-default.h **** 
  31:/usr/include/newlib/c++/9.2.1/arm-none-eabi/thumb/v6-m/nofp/bits/gthr-default.h **** typedef int __gthread_key_t;
  32:/usr/include/newlib/c++/9.2.1/arm-none-eabi/thumb/v6-m/nofp/bits/gthr-default.h **** typedef int __gthread_once_t;
  33:/usr/include/newlib/c++/9.2.1/arm-none-eabi/thumb/v6-m/nofp/bits/gthr-default.h **** typedef int __gthread_mutex_t;
  34:/usr/include/newlib/c++/9.2.1/arm-none-eabi/thumb/v6-m/nofp/bits/gthr-default.h **** typedef int __gthread_recursive_mutex_t;
  35:/usr/include/newlib/c++/9.2.1/arm-none-eabi/thumb/v6-m/nofp/bits/gthr-default.h **** 
  36:/usr/include/newlib/c++/9.2.1/arm-none-eabi/thumb/v6-m/nofp/bits/gthr-default.h **** #define __GTHREAD_ONCE_INIT 0
  37:/usr/include/newlib/c++/9.2.1/arm-none-eabi/thumb/v6-m/nofp/bits/gthr-default.h **** #define __GTHREAD_MUTEX_INIT 0
  38:/usr/include/newlib/c++/9.2.1/arm-none-eabi/thumb/v6-m/nofp/bits/gthr-default.h **** #define __GTHREAD_MUTEX_INIT_FUNCTION(mx) do {} while (0)
  39:/usr/include/newlib/c++/9.2.1/arm-none-eabi/thumb/v6-m/nofp/bits/gthr-default.h **** #define __GTHREAD_RECURSIVE_MUTEX_INIT 0
  40:/usr/include/newlib/c++/9.2.1/arm-none-eabi/thumb/v6-m/nofp/bits/gthr-default.h **** 
  41:/usr/include/newlib/c++/9.2.1/arm-none-eabi/thumb/v6-m/nofp/bits/gthr-default.h **** #define _GLIBCXX_UNUSED __attribute__((__unused__))
  42:/usr/include/newlib/c++/9.2.1/arm-none-eabi/thumb/v6-m/nofp/bits/gthr-default.h **** 
  43:/usr/include/newlib/c++/9.2.1/arm-none-eabi/thumb/v6-m/nofp/bits/gthr-default.h **** #ifdef _LIBOBJC
  44:/usr/include/newlib/c++/9.2.1/arm-none-eabi/thumb/v6-m/nofp/bits/gthr-default.h **** 
  45:/usr/include/newlib/c++/9.2.1/arm-none-eabi/thumb/v6-m/nofp/bits/gthr-default.h **** /* Thread local storage for a single thread */
  46:/usr/include/newlib/c++/9.2.1/arm-none-eabi/thumb/v6-m/nofp/bits/gthr-default.h **** static void *thread_local_storage = NULL;
  47:/usr/include/newlib/c++/9.2.1/arm-none-eabi/thumb/v6-m/nofp/bits/gthr-default.h **** 
  48:/usr/include/newlib/c++/9.2.1/arm-none-eabi/thumb/v6-m/nofp/bits/gthr-default.h **** /* Backend initialization functions */
  49:/usr/include/newlib/c++/9.2.1/arm-none-eabi/thumb/v6-m/nofp/bits/gthr-default.h **** 
  50:/usr/include/newlib/c++/9.2.1/arm-none-eabi/thumb/v6-m/nofp/bits/gthr-default.h **** /* Initialize the threads subsystem.  */
  51:/usr/include/newlib/c++/9.2.1/arm-none-eabi/thumb/v6-m/nofp/bits/gthr-default.h **** static inline int
  52:/usr/include/newlib/c++/9.2.1/arm-none-eabi/thumb/v6-m/nofp/bits/gthr-default.h **** __gthread_objc_init_thread_system (void)
  53:/usr/include/newlib/c++/9.2.1/arm-none-eabi/thumb/v6-m/nofp/bits/gthr-default.h **** {
  54:/usr/include/newlib/c++/9.2.1/arm-none-eabi/thumb/v6-m/nofp/bits/gthr-default.h ****   /* No thread support available */
  55:/usr/include/newlib/c++/9.2.1/arm-none-eabi/thumb/v6-m/nofp/bits/gthr-default.h ****   return -1;
  56:/usr/include/newlib/c++/9.2.1/arm-none-eabi/thumb/v6-m/nofp/bits/gthr-default.h **** }
  57:/usr/include/newlib/c++/9.2.1/arm-none-eabi/thumb/v6-m/nofp/bits/gthr-default.h **** 
  58:/usr/include/newlib/c++/9.2.1/arm-none-eabi/thumb/v6-m/nofp/bits/gthr-default.h **** /* Close the threads subsystem.  */
  59:/usr/include/newlib/c++/9.2.1/arm-none-eabi/thumb/v6-m/nofp/bits/gthr-default.h **** static inline int
  60:/usr/include/newlib/c++/9.2.1/arm-none-eabi/thumb/v6-m/nofp/bits/gthr-default.h **** __gthread_objc_close_thread_system (void)
  61:/usr/include/newlib/c++/9.2.1/arm-none-eabi/thumb/v6-m/nofp/bits/gthr-default.h **** {
  62:/usr/include/newlib/c++/9.2.1/arm-none-eabi/thumb/v6-m/nofp/bits/gthr-default.h ****   /* No thread support available */
  63:/usr/include/newlib/c++/9.2.1/arm-none-eabi/thumb/v6-m/nofp/bits/gthr-default.h ****   return -1;
  64:/usr/include/newlib/c++/9.2.1/arm-none-eabi/thumb/v6-m/nofp/bits/gthr-default.h **** }
ARM GAS  /tmp/ccOFgnnN.s 			page 43


  65:/usr/include/newlib/c++/9.2.1/arm-none-eabi/thumb/v6-m/nofp/bits/gthr-default.h **** 
  66:/usr/include/newlib/c++/9.2.1/arm-none-eabi/thumb/v6-m/nofp/bits/gthr-default.h **** /* Backend thread functions */
  67:/usr/include/newlib/c++/9.2.1/arm-none-eabi/thumb/v6-m/nofp/bits/gthr-default.h **** 
  68:/usr/include/newlib/c++/9.2.1/arm-none-eabi/thumb/v6-m/nofp/bits/gthr-default.h **** /* Create a new thread of execution.  */
  69:/usr/include/newlib/c++/9.2.1/arm-none-eabi/thumb/v6-m/nofp/bits/gthr-default.h **** static inline objc_thread_t
  70:/usr/include/newlib/c++/9.2.1/arm-none-eabi/thumb/v6-m/nofp/bits/gthr-default.h **** __gthread_objc_thread_detach (void (* func)(void *), void * arg _GLIBCXX_UNUSED)
  71:/usr/include/newlib/c++/9.2.1/arm-none-eabi/thumb/v6-m/nofp/bits/gthr-default.h **** {
  72:/usr/include/newlib/c++/9.2.1/arm-none-eabi/thumb/v6-m/nofp/bits/gthr-default.h ****   /* No thread support available */
  73:/usr/include/newlib/c++/9.2.1/arm-none-eabi/thumb/v6-m/nofp/bits/gthr-default.h ****   return NULL;
  74:/usr/include/newlib/c++/9.2.1/arm-none-eabi/thumb/v6-m/nofp/bits/gthr-default.h **** }
  75:/usr/include/newlib/c++/9.2.1/arm-none-eabi/thumb/v6-m/nofp/bits/gthr-default.h **** 
  76:/usr/include/newlib/c++/9.2.1/arm-none-eabi/thumb/v6-m/nofp/bits/gthr-default.h **** /* Set the current thread's priority.  */
  77:/usr/include/newlib/c++/9.2.1/arm-none-eabi/thumb/v6-m/nofp/bits/gthr-default.h **** static inline int
  78:/usr/include/newlib/c++/9.2.1/arm-none-eabi/thumb/v6-m/nofp/bits/gthr-default.h **** __gthread_objc_thread_set_priority (int priority _GLIBCXX_UNUSED)
  79:/usr/include/newlib/c++/9.2.1/arm-none-eabi/thumb/v6-m/nofp/bits/gthr-default.h **** {
  80:/usr/include/newlib/c++/9.2.1/arm-none-eabi/thumb/v6-m/nofp/bits/gthr-default.h ****   /* No thread support available */
  81:/usr/include/newlib/c++/9.2.1/arm-none-eabi/thumb/v6-m/nofp/bits/gthr-default.h ****   return -1;
  82:/usr/include/newlib/c++/9.2.1/arm-none-eabi/thumb/v6-m/nofp/bits/gthr-default.h **** }
  83:/usr/include/newlib/c++/9.2.1/arm-none-eabi/thumb/v6-m/nofp/bits/gthr-default.h **** 
  84:/usr/include/newlib/c++/9.2.1/arm-none-eabi/thumb/v6-m/nofp/bits/gthr-default.h **** /* Return the current thread's priority.  */
  85:/usr/include/newlib/c++/9.2.1/arm-none-eabi/thumb/v6-m/nofp/bits/gthr-default.h **** static inline int
  86:/usr/include/newlib/c++/9.2.1/arm-none-eabi/thumb/v6-m/nofp/bits/gthr-default.h **** __gthread_objc_thread_get_priority (void)
  87:/usr/include/newlib/c++/9.2.1/arm-none-eabi/thumb/v6-m/nofp/bits/gthr-default.h **** {
  88:/usr/include/newlib/c++/9.2.1/arm-none-eabi/thumb/v6-m/nofp/bits/gthr-default.h ****   return OBJC_THREAD_INTERACTIVE_PRIORITY;
  89:/usr/include/newlib/c++/9.2.1/arm-none-eabi/thumb/v6-m/nofp/bits/gthr-default.h **** }
  90:/usr/include/newlib/c++/9.2.1/arm-none-eabi/thumb/v6-m/nofp/bits/gthr-default.h **** 
  91:/usr/include/newlib/c++/9.2.1/arm-none-eabi/thumb/v6-m/nofp/bits/gthr-default.h **** /* Yield our process time to another thread.  */
  92:/usr/include/newlib/c++/9.2.1/arm-none-eabi/thumb/v6-m/nofp/bits/gthr-default.h **** static inline void
  93:/usr/include/newlib/c++/9.2.1/arm-none-eabi/thumb/v6-m/nofp/bits/gthr-default.h **** __gthread_objc_thread_yield (void)
  94:/usr/include/newlib/c++/9.2.1/arm-none-eabi/thumb/v6-m/nofp/bits/gthr-default.h **** {
  95:/usr/include/newlib/c++/9.2.1/arm-none-eabi/thumb/v6-m/nofp/bits/gthr-default.h ****   return;
  96:/usr/include/newlib/c++/9.2.1/arm-none-eabi/thumb/v6-m/nofp/bits/gthr-default.h **** }
  97:/usr/include/newlib/c++/9.2.1/arm-none-eabi/thumb/v6-m/nofp/bits/gthr-default.h **** 
  98:/usr/include/newlib/c++/9.2.1/arm-none-eabi/thumb/v6-m/nofp/bits/gthr-default.h **** /* Terminate the current thread.  */
  99:/usr/include/newlib/c++/9.2.1/arm-none-eabi/thumb/v6-m/nofp/bits/gthr-default.h **** static inline int
 100:/usr/include/newlib/c++/9.2.1/arm-none-eabi/thumb/v6-m/nofp/bits/gthr-default.h **** __gthread_objc_thread_exit (void)
 101:/usr/include/newlib/c++/9.2.1/arm-none-eabi/thumb/v6-m/nofp/bits/gthr-default.h **** {
 102:/usr/include/newlib/c++/9.2.1/arm-none-eabi/thumb/v6-m/nofp/bits/gthr-default.h ****   /* No thread support available */
 103:/usr/include/newlib/c++/9.2.1/arm-none-eabi/thumb/v6-m/nofp/bits/gthr-default.h ****   /* Should we really exit the program */
 104:/usr/include/newlib/c++/9.2.1/arm-none-eabi/thumb/v6-m/nofp/bits/gthr-default.h ****   /* exit (&__objc_thread_exit_status); */
 105:/usr/include/newlib/c++/9.2.1/arm-none-eabi/thumb/v6-m/nofp/bits/gthr-default.h ****   return -1;
 106:/usr/include/newlib/c++/9.2.1/arm-none-eabi/thumb/v6-m/nofp/bits/gthr-default.h **** }
 107:/usr/include/newlib/c++/9.2.1/arm-none-eabi/thumb/v6-m/nofp/bits/gthr-default.h **** 
 108:/usr/include/newlib/c++/9.2.1/arm-none-eabi/thumb/v6-m/nofp/bits/gthr-default.h **** /* Returns an integer value which uniquely describes a thread.  */
 109:/usr/include/newlib/c++/9.2.1/arm-none-eabi/thumb/v6-m/nofp/bits/gthr-default.h **** static inline objc_thread_t
 110:/usr/include/newlib/c++/9.2.1/arm-none-eabi/thumb/v6-m/nofp/bits/gthr-default.h **** __gthread_objc_thread_id (void)
 111:/usr/include/newlib/c++/9.2.1/arm-none-eabi/thumb/v6-m/nofp/bits/gthr-default.h **** {
 112:/usr/include/newlib/c++/9.2.1/arm-none-eabi/thumb/v6-m/nofp/bits/gthr-default.h ****   /* No thread support, use 1.  */
 113:/usr/include/newlib/c++/9.2.1/arm-none-eabi/thumb/v6-m/nofp/bits/gthr-default.h ****   return (objc_thread_t) 1;
 114:/usr/include/newlib/c++/9.2.1/arm-none-eabi/thumb/v6-m/nofp/bits/gthr-default.h **** }
 115:/usr/include/newlib/c++/9.2.1/arm-none-eabi/thumb/v6-m/nofp/bits/gthr-default.h **** 
 116:/usr/include/newlib/c++/9.2.1/arm-none-eabi/thumb/v6-m/nofp/bits/gthr-default.h **** /* Sets the thread's local storage pointer.  */
 117:/usr/include/newlib/c++/9.2.1/arm-none-eabi/thumb/v6-m/nofp/bits/gthr-default.h **** static inline int
 118:/usr/include/newlib/c++/9.2.1/arm-none-eabi/thumb/v6-m/nofp/bits/gthr-default.h **** __gthread_objc_thread_set_data (void *value)
 119:/usr/include/newlib/c++/9.2.1/arm-none-eabi/thumb/v6-m/nofp/bits/gthr-default.h **** {
 120:/usr/include/newlib/c++/9.2.1/arm-none-eabi/thumb/v6-m/nofp/bits/gthr-default.h ****   thread_local_storage = value;
 121:/usr/include/newlib/c++/9.2.1/arm-none-eabi/thumb/v6-m/nofp/bits/gthr-default.h ****   return 0;
ARM GAS  /tmp/ccOFgnnN.s 			page 44


 122:/usr/include/newlib/c++/9.2.1/arm-none-eabi/thumb/v6-m/nofp/bits/gthr-default.h **** }
 123:/usr/include/newlib/c++/9.2.1/arm-none-eabi/thumb/v6-m/nofp/bits/gthr-default.h **** 
 124:/usr/include/newlib/c++/9.2.1/arm-none-eabi/thumb/v6-m/nofp/bits/gthr-default.h **** /* Returns the thread's local storage pointer.  */
 125:/usr/include/newlib/c++/9.2.1/arm-none-eabi/thumb/v6-m/nofp/bits/gthr-default.h **** static inline void *
 126:/usr/include/newlib/c++/9.2.1/arm-none-eabi/thumb/v6-m/nofp/bits/gthr-default.h **** __gthread_objc_thread_get_data (void)
 127:/usr/include/newlib/c++/9.2.1/arm-none-eabi/thumb/v6-m/nofp/bits/gthr-default.h **** {
 128:/usr/include/newlib/c++/9.2.1/arm-none-eabi/thumb/v6-m/nofp/bits/gthr-default.h ****   return thread_local_storage;
 129:/usr/include/newlib/c++/9.2.1/arm-none-eabi/thumb/v6-m/nofp/bits/gthr-default.h **** }
 130:/usr/include/newlib/c++/9.2.1/arm-none-eabi/thumb/v6-m/nofp/bits/gthr-default.h **** 
 131:/usr/include/newlib/c++/9.2.1/arm-none-eabi/thumb/v6-m/nofp/bits/gthr-default.h **** /* Backend mutex functions */
 132:/usr/include/newlib/c++/9.2.1/arm-none-eabi/thumb/v6-m/nofp/bits/gthr-default.h **** 
 133:/usr/include/newlib/c++/9.2.1/arm-none-eabi/thumb/v6-m/nofp/bits/gthr-default.h **** /* Allocate a mutex.  */
 134:/usr/include/newlib/c++/9.2.1/arm-none-eabi/thumb/v6-m/nofp/bits/gthr-default.h **** static inline int
 135:/usr/include/newlib/c++/9.2.1/arm-none-eabi/thumb/v6-m/nofp/bits/gthr-default.h **** __gthread_objc_mutex_allocate (objc_mutex_t mutex _GLIBCXX_UNUSED)
 136:/usr/include/newlib/c++/9.2.1/arm-none-eabi/thumb/v6-m/nofp/bits/gthr-default.h **** {
 137:/usr/include/newlib/c++/9.2.1/arm-none-eabi/thumb/v6-m/nofp/bits/gthr-default.h ****   return 0;
 138:/usr/include/newlib/c++/9.2.1/arm-none-eabi/thumb/v6-m/nofp/bits/gthr-default.h **** }
 139:/usr/include/newlib/c++/9.2.1/arm-none-eabi/thumb/v6-m/nofp/bits/gthr-default.h **** 
 140:/usr/include/newlib/c++/9.2.1/arm-none-eabi/thumb/v6-m/nofp/bits/gthr-default.h **** /* Deallocate a mutex.  */
 141:/usr/include/newlib/c++/9.2.1/arm-none-eabi/thumb/v6-m/nofp/bits/gthr-default.h **** static inline int
 142:/usr/include/newlib/c++/9.2.1/arm-none-eabi/thumb/v6-m/nofp/bits/gthr-default.h **** __gthread_objc_mutex_deallocate (objc_mutex_t mutex _GLIBCXX_UNUSED)
 143:/usr/include/newlib/c++/9.2.1/arm-none-eabi/thumb/v6-m/nofp/bits/gthr-default.h **** {
 144:/usr/include/newlib/c++/9.2.1/arm-none-eabi/thumb/v6-m/nofp/bits/gthr-default.h ****   return 0;
 145:/usr/include/newlib/c++/9.2.1/arm-none-eabi/thumb/v6-m/nofp/bits/gthr-default.h **** }
 146:/usr/include/newlib/c++/9.2.1/arm-none-eabi/thumb/v6-m/nofp/bits/gthr-default.h **** 
 147:/usr/include/newlib/c++/9.2.1/arm-none-eabi/thumb/v6-m/nofp/bits/gthr-default.h **** /* Grab a lock on a mutex.  */
 148:/usr/include/newlib/c++/9.2.1/arm-none-eabi/thumb/v6-m/nofp/bits/gthr-default.h **** static inline int
 149:/usr/include/newlib/c++/9.2.1/arm-none-eabi/thumb/v6-m/nofp/bits/gthr-default.h **** __gthread_objc_mutex_lock (objc_mutex_t mutex _GLIBCXX_UNUSED)
 150:/usr/include/newlib/c++/9.2.1/arm-none-eabi/thumb/v6-m/nofp/bits/gthr-default.h **** {
 151:/usr/include/newlib/c++/9.2.1/arm-none-eabi/thumb/v6-m/nofp/bits/gthr-default.h ****   /* There can only be one thread, so we always get the lock */
 152:/usr/include/newlib/c++/9.2.1/arm-none-eabi/thumb/v6-m/nofp/bits/gthr-default.h ****   return 0;
 153:/usr/include/newlib/c++/9.2.1/arm-none-eabi/thumb/v6-m/nofp/bits/gthr-default.h **** }
 154:/usr/include/newlib/c++/9.2.1/arm-none-eabi/thumb/v6-m/nofp/bits/gthr-default.h **** 
 155:/usr/include/newlib/c++/9.2.1/arm-none-eabi/thumb/v6-m/nofp/bits/gthr-default.h **** /* Try to grab a lock on a mutex.  */
 156:/usr/include/newlib/c++/9.2.1/arm-none-eabi/thumb/v6-m/nofp/bits/gthr-default.h **** static inline int
 157:/usr/include/newlib/c++/9.2.1/arm-none-eabi/thumb/v6-m/nofp/bits/gthr-default.h **** __gthread_objc_mutex_trylock (objc_mutex_t mutex _GLIBCXX_UNUSED)
 158:/usr/include/newlib/c++/9.2.1/arm-none-eabi/thumb/v6-m/nofp/bits/gthr-default.h **** {
 159:/usr/include/newlib/c++/9.2.1/arm-none-eabi/thumb/v6-m/nofp/bits/gthr-default.h ****   /* There can only be one thread, so we always get the lock */
 160:/usr/include/newlib/c++/9.2.1/arm-none-eabi/thumb/v6-m/nofp/bits/gthr-default.h ****   return 0;
 161:/usr/include/newlib/c++/9.2.1/arm-none-eabi/thumb/v6-m/nofp/bits/gthr-default.h **** }
 162:/usr/include/newlib/c++/9.2.1/arm-none-eabi/thumb/v6-m/nofp/bits/gthr-default.h **** 
 163:/usr/include/newlib/c++/9.2.1/arm-none-eabi/thumb/v6-m/nofp/bits/gthr-default.h **** /* Unlock the mutex */
 164:/usr/include/newlib/c++/9.2.1/arm-none-eabi/thumb/v6-m/nofp/bits/gthr-default.h **** static inline int
 165:/usr/include/newlib/c++/9.2.1/arm-none-eabi/thumb/v6-m/nofp/bits/gthr-default.h **** __gthread_objc_mutex_unlock (objc_mutex_t mutex _GLIBCXX_UNUSED)
 166:/usr/include/newlib/c++/9.2.1/arm-none-eabi/thumb/v6-m/nofp/bits/gthr-default.h **** {
 167:/usr/include/newlib/c++/9.2.1/arm-none-eabi/thumb/v6-m/nofp/bits/gthr-default.h ****   return 0;
 168:/usr/include/newlib/c++/9.2.1/arm-none-eabi/thumb/v6-m/nofp/bits/gthr-default.h **** }
 169:/usr/include/newlib/c++/9.2.1/arm-none-eabi/thumb/v6-m/nofp/bits/gthr-default.h **** 
 170:/usr/include/newlib/c++/9.2.1/arm-none-eabi/thumb/v6-m/nofp/bits/gthr-default.h **** /* Backend condition mutex functions */
 171:/usr/include/newlib/c++/9.2.1/arm-none-eabi/thumb/v6-m/nofp/bits/gthr-default.h **** 
 172:/usr/include/newlib/c++/9.2.1/arm-none-eabi/thumb/v6-m/nofp/bits/gthr-default.h **** /* Allocate a condition.  */
 173:/usr/include/newlib/c++/9.2.1/arm-none-eabi/thumb/v6-m/nofp/bits/gthr-default.h **** static inline int
 174:/usr/include/newlib/c++/9.2.1/arm-none-eabi/thumb/v6-m/nofp/bits/gthr-default.h **** __gthread_objc_condition_allocate (objc_condition_t condition _GLIBCXX_UNUSED)
 175:/usr/include/newlib/c++/9.2.1/arm-none-eabi/thumb/v6-m/nofp/bits/gthr-default.h **** {
 176:/usr/include/newlib/c++/9.2.1/arm-none-eabi/thumb/v6-m/nofp/bits/gthr-default.h ****   return 0;
 177:/usr/include/newlib/c++/9.2.1/arm-none-eabi/thumb/v6-m/nofp/bits/gthr-default.h **** }
 178:/usr/include/newlib/c++/9.2.1/arm-none-eabi/thumb/v6-m/nofp/bits/gthr-default.h **** 
ARM GAS  /tmp/ccOFgnnN.s 			page 45


 179:/usr/include/newlib/c++/9.2.1/arm-none-eabi/thumb/v6-m/nofp/bits/gthr-default.h **** /* Deallocate a condition.  */
 180:/usr/include/newlib/c++/9.2.1/arm-none-eabi/thumb/v6-m/nofp/bits/gthr-default.h **** static inline int
 181:/usr/include/newlib/c++/9.2.1/arm-none-eabi/thumb/v6-m/nofp/bits/gthr-default.h **** __gthread_objc_condition_deallocate (objc_condition_t condition _GLIBCXX_UNUSED)
 182:/usr/include/newlib/c++/9.2.1/arm-none-eabi/thumb/v6-m/nofp/bits/gthr-default.h **** {
 183:/usr/include/newlib/c++/9.2.1/arm-none-eabi/thumb/v6-m/nofp/bits/gthr-default.h ****   return 0;
 184:/usr/include/newlib/c++/9.2.1/arm-none-eabi/thumb/v6-m/nofp/bits/gthr-default.h **** }
 185:/usr/include/newlib/c++/9.2.1/arm-none-eabi/thumb/v6-m/nofp/bits/gthr-default.h **** 
 186:/usr/include/newlib/c++/9.2.1/arm-none-eabi/thumb/v6-m/nofp/bits/gthr-default.h **** /* Wait on the condition */
 187:/usr/include/newlib/c++/9.2.1/arm-none-eabi/thumb/v6-m/nofp/bits/gthr-default.h **** static inline int
 188:/usr/include/newlib/c++/9.2.1/arm-none-eabi/thumb/v6-m/nofp/bits/gthr-default.h **** __gthread_objc_condition_wait (objc_condition_t condition _GLIBCXX_UNUSED,
 189:/usr/include/newlib/c++/9.2.1/arm-none-eabi/thumb/v6-m/nofp/bits/gthr-default.h **** 			       objc_mutex_t mutex _GLIBCXX_UNUSED)
 190:/usr/include/newlib/c++/9.2.1/arm-none-eabi/thumb/v6-m/nofp/bits/gthr-default.h **** {
 191:/usr/include/newlib/c++/9.2.1/arm-none-eabi/thumb/v6-m/nofp/bits/gthr-default.h ****   return 0;
 192:/usr/include/newlib/c++/9.2.1/arm-none-eabi/thumb/v6-m/nofp/bits/gthr-default.h **** }
 193:/usr/include/newlib/c++/9.2.1/arm-none-eabi/thumb/v6-m/nofp/bits/gthr-default.h **** 
 194:/usr/include/newlib/c++/9.2.1/arm-none-eabi/thumb/v6-m/nofp/bits/gthr-default.h **** /* Wake up all threads waiting on this condition.  */
 195:/usr/include/newlib/c++/9.2.1/arm-none-eabi/thumb/v6-m/nofp/bits/gthr-default.h **** static inline int
 196:/usr/include/newlib/c++/9.2.1/arm-none-eabi/thumb/v6-m/nofp/bits/gthr-default.h **** __gthread_objc_condition_broadcast (objc_condition_t condition _GLIBCXX_UNUSED)
 197:/usr/include/newlib/c++/9.2.1/arm-none-eabi/thumb/v6-m/nofp/bits/gthr-default.h **** {
 198:/usr/include/newlib/c++/9.2.1/arm-none-eabi/thumb/v6-m/nofp/bits/gthr-default.h ****   return 0;
 199:/usr/include/newlib/c++/9.2.1/arm-none-eabi/thumb/v6-m/nofp/bits/gthr-default.h **** }
 200:/usr/include/newlib/c++/9.2.1/arm-none-eabi/thumb/v6-m/nofp/bits/gthr-default.h **** 
 201:/usr/include/newlib/c++/9.2.1/arm-none-eabi/thumb/v6-m/nofp/bits/gthr-default.h **** /* Wake up one thread waiting on this condition.  */
 202:/usr/include/newlib/c++/9.2.1/arm-none-eabi/thumb/v6-m/nofp/bits/gthr-default.h **** static inline int
 203:/usr/include/newlib/c++/9.2.1/arm-none-eabi/thumb/v6-m/nofp/bits/gthr-default.h **** __gthread_objc_condition_signal (objc_condition_t condition _GLIBCXX_UNUSED)
 204:/usr/include/newlib/c++/9.2.1/arm-none-eabi/thumb/v6-m/nofp/bits/gthr-default.h **** {
 205:/usr/include/newlib/c++/9.2.1/arm-none-eabi/thumb/v6-m/nofp/bits/gthr-default.h ****   return 0;
 206:/usr/include/newlib/c++/9.2.1/arm-none-eabi/thumb/v6-m/nofp/bits/gthr-default.h **** }
 207:/usr/include/newlib/c++/9.2.1/arm-none-eabi/thumb/v6-m/nofp/bits/gthr-default.h **** 
 208:/usr/include/newlib/c++/9.2.1/arm-none-eabi/thumb/v6-m/nofp/bits/gthr-default.h **** #else /* _LIBOBJC */
 209:/usr/include/newlib/c++/9.2.1/arm-none-eabi/thumb/v6-m/nofp/bits/gthr-default.h **** 
 210:/usr/include/newlib/c++/9.2.1/arm-none-eabi/thumb/v6-m/nofp/bits/gthr-default.h **** static inline int
 211:/usr/include/newlib/c++/9.2.1/arm-none-eabi/thumb/v6-m/nofp/bits/gthr-default.h **** __gthread_active_p (void)
 212:/usr/include/newlib/c++/9.2.1/arm-none-eabi/thumb/v6-m/nofp/bits/gthr-default.h **** {
 213:/usr/include/newlib/c++/9.2.1/arm-none-eabi/thumb/v6-m/nofp/bits/gthr-default.h ****   return 0;
 214:/usr/include/newlib/c++/9.2.1/arm-none-eabi/thumb/v6-m/nofp/bits/gthr-default.h **** }
 215:/usr/include/newlib/c++/9.2.1/arm-none-eabi/thumb/v6-m/nofp/bits/gthr-default.h **** 
 216:/usr/include/newlib/c++/9.2.1/arm-none-eabi/thumb/v6-m/nofp/bits/gthr-default.h **** static inline int
 217:/usr/include/newlib/c++/9.2.1/arm-none-eabi/thumb/v6-m/nofp/bits/gthr-default.h **** __gthread_once (__gthread_once_t *__once _GLIBCXX_UNUSED, void (*__func) (void) _GLIBCXX_UNUSED)
 218:/usr/include/newlib/c++/9.2.1/arm-none-eabi/thumb/v6-m/nofp/bits/gthr-default.h **** {
 219:/usr/include/newlib/c++/9.2.1/arm-none-eabi/thumb/v6-m/nofp/bits/gthr-default.h ****   return 0;
 220:/usr/include/newlib/c++/9.2.1/arm-none-eabi/thumb/v6-m/nofp/bits/gthr-default.h **** }
 221:/usr/include/newlib/c++/9.2.1/arm-none-eabi/thumb/v6-m/nofp/bits/gthr-default.h **** 
 222:/usr/include/newlib/c++/9.2.1/arm-none-eabi/thumb/v6-m/nofp/bits/gthr-default.h **** static inline int _GLIBCXX_UNUSED
 223:/usr/include/newlib/c++/9.2.1/arm-none-eabi/thumb/v6-m/nofp/bits/gthr-default.h **** __gthread_key_create (__gthread_key_t *__key _GLIBCXX_UNUSED, void (*__func) (void *) _GLIBCXX_UNUS
 224:/usr/include/newlib/c++/9.2.1/arm-none-eabi/thumb/v6-m/nofp/bits/gthr-default.h **** {
 225:/usr/include/newlib/c++/9.2.1/arm-none-eabi/thumb/v6-m/nofp/bits/gthr-default.h ****   return 0;
 226:/usr/include/newlib/c++/9.2.1/arm-none-eabi/thumb/v6-m/nofp/bits/gthr-default.h **** }
 227:/usr/include/newlib/c++/9.2.1/arm-none-eabi/thumb/v6-m/nofp/bits/gthr-default.h **** 
 228:/usr/include/newlib/c++/9.2.1/arm-none-eabi/thumb/v6-m/nofp/bits/gthr-default.h **** static int _GLIBCXX_UNUSED
 229:/usr/include/newlib/c++/9.2.1/arm-none-eabi/thumb/v6-m/nofp/bits/gthr-default.h **** __gthread_key_delete (__gthread_key_t __key _GLIBCXX_UNUSED)
 230:/usr/include/newlib/c++/9.2.1/arm-none-eabi/thumb/v6-m/nofp/bits/gthr-default.h **** {
 1318              		.loc 7 230 1
 1319              		.cfi_startproc
 1320              		@ args = 0, pretend = 0, frame = 8
 1321              		@ frame_needed = 1, uses_anonymous_args = 0
 1322 0000 80B5     		push	{r7, lr}
ARM GAS  /tmp/ccOFgnnN.s 			page 46


 1323              	.LCFI75:
 1324              		.cfi_def_cfa_offset 8
 1325              		.cfi_offset 7, -8
 1326              		.cfi_offset 14, -4
 1327 0002 82B0     		sub	sp, sp, #8
 1328              	.LCFI76:
 1329              		.cfi_def_cfa_offset 16
 1330 0004 00AF     		add	r7, sp, #0
 1331              	.LCFI77:
 1332              		.cfi_def_cfa_register 7
 1333 0006 7860     		str	r0, [r7, #4]
 231:/usr/include/newlib/c++/9.2.1/arm-none-eabi/thumb/v6-m/nofp/bits/gthr-default.h ****   return 0;
 1334              		.loc 7 231 10
 1335 0008 0023     		movs	r3, #0
 232:/usr/include/newlib/c++/9.2.1/arm-none-eabi/thumb/v6-m/nofp/bits/gthr-default.h **** }
 1336              		.loc 7 232 1
 1337 000a 1800     		movs	r0, r3
 1338 000c BD46     		mov	sp, r7
 1339 000e 02B0     		add	sp, sp, #8
 1340              		@ sp needed
 1341 0010 80BD     		pop	{r7, pc}
 1342              		.cfi_endproc
 1343              	.LFE605:
 1345              		.section	.rodata._ZN12_GLOBAL__N_1L12fibo_exampleE,"a"
 1346              		.align	2
 1349              	_ZN12_GLOBAL__N_1L12fibo_exampleE:
 1350 0000 01000000 		.word	1
 1351 0004 01000000 		.word	1
 1352 0008 02000000 		.word	2
 1353 000c 03000000 		.word	3
 1354 0010 05000000 		.word	5
 1355 0014 08000000 		.word	8
 1356              		.section	.rodata._ZN4metaL11all_is_sameE,"a"
 1357              		.align	2
 1360              	_ZN4metaL11all_is_sameE:
 1361 0000 00       		.space	1
 1362              		.section	.text._ZN3PinC2ERN3mcu4GPIOEi,"axG",%progbits,_ZN3PinC5ERN3mcu4GPIOEi,comdat
 1363              		.align	1
 1364              		.weak	_ZN3PinC2ERN3mcu4GPIOEi
 1365              		.syntax unified
 1366              		.code	16
 1367              		.thumb_func
 1368              		.fpu softvfp
 1370              	_ZN3PinC2ERN3mcu4GPIOEi:
 1371              	.LFB2192:
 1372              		.file 8 "mculib/src/pin.h"
   1:mculib/src/pin.h **** #pragma once
   2:mculib/src/pin.h **** 
   3:mculib/src/pin.h **** #include "periph_gpio.h"
   4:mculib/src/pin.h **** #include "pins.h"
   5:mculib/src/pin.h **** #include "meta.h"
   6:mculib/src/pin.h **** 
   7:mculib/src/pin.h **** #if defined(USE_MOCK_GPIO)
   8:mculib/src/pin.h **** using GPIO = mock::GPIO;
   9:mculib/src/pin.h **** #else
  10:mculib/src/pin.h **** using GPIO = mcu::GPIO;
  11:mculib/src/pin.h **** #endif
ARM GAS  /tmp/ccOFgnnN.s 			page 47


  12:mculib/src/pin.h **** 
  13:mculib/src/pin.h **** class Pin
  14:mculib/src/pin.h **** {
  15:mculib/src/pin.h ****    GPIO &port;
  16:mculib/src/pin.h ****    const int n;
  17:mculib/src/pin.h **** 
  18:mculib/src/pin.h **** public:
  19:mculib/src/pin.h ****    Pin(GPIO &port, int n) : port{port}, n{n} {}
 1373              		.loc 8 19 4
 1374              		.cfi_startproc
 1375              		@ args = 0, pretend = 0, frame = 16
 1376              		@ frame_needed = 1, uses_anonymous_args = 0
 1377 0000 80B5     		push	{r7, lr}
 1378              	.LCFI78:
 1379              		.cfi_def_cfa_offset 8
 1380              		.cfi_offset 7, -8
 1381              		.cfi_offset 14, -4
 1382 0002 84B0     		sub	sp, sp, #16
 1383              	.LCFI79:
 1384              		.cfi_def_cfa_offset 24
 1385 0004 00AF     		add	r7, sp, #0
 1386              	.LCFI80:
 1387              		.cfi_def_cfa_register 7
 1388 0006 F860     		str	r0, [r7, #12]
 1389 0008 B960     		str	r1, [r7, #8]
 1390 000a 7A60     		str	r2, [r7, #4]
 1391              	.LBB2:
 1392              		.loc 8 19 44
 1393 000c FB68     		ldr	r3, [r7, #12]
 1394 000e BA68     		ldr	r2, [r7, #8]
 1395 0010 1A60     		str	r2, [r3]
 1396 0012 FB68     		ldr	r3, [r7, #12]
 1397 0014 7A68     		ldr	r2, [r7, #4]
 1398 0016 5A60     		str	r2, [r3, #4]
 1399              	.LBE2:
 1400              		.loc 8 19 47
 1401 0018 FB68     		ldr	r3, [r7, #12]
 1402 001a 1800     		movs	r0, r3
 1403 001c BD46     		mov	sp, r7
 1404 001e 04B0     		add	sp, sp, #16
 1405              		@ sp needed
 1406 0020 80BD     		pop	{r7, pc}
 1407              		.cfi_endproc
 1408              	.LFE2192:
 1410              		.weak	_ZN3PinC1ERN3mcu4GPIOEi
 1411              		.thumb_set _ZN3PinC1ERN3mcu4GPIOEi,_ZN3PinC2ERN3mcu4GPIOEi
 1412              		.section	.text._ZN3Pin3setEv,"axG",%progbits,_ZN3Pin3setEv,comdat
 1413              		.align	1
 1414              		.weak	_ZN3Pin3setEv
 1415              		.syntax unified
 1416              		.code	16
 1417              		.thumb_func
 1418              		.fpu softvfp
 1420              	_ZN3Pin3setEv:
 1421              	.LFB2195:
  20:mculib/src/pin.h **** 
  21:mculib/src/pin.h ****    template <class Pin_, mcu::PinMode mode = mcu::PinMode::Input>
ARM GAS  /tmp/ccOFgnnN.s 			page 48


  22:mculib/src/pin.h ****    static auto &make()
  23:mculib/src/pin.h ****    {
  24:mculib/src/pin.h ****       static Pin pin{mcu::make_reference<Pin_::periph>(), Pin_::n};
  25:mculib/src/pin.h ****       mcu::make_reference<mcu::Periph::RCC>()
  26:mculib/src/pin.h ****           .template clock_enable<Pin_::periph>();
  27:mculib/src/pin.h ****       pin.port.template init<Pin_, mode>();
  28:mculib/src/pin.h ****       return pin;
  29:mculib/src/pin.h ****    }
  30:mculib/src/pin.h **** 
  31:mculib/src/pin.h ****    void set() { port.set(n); }
 1422              		.loc 8 31 9
 1423              		.cfi_startproc
 1424              		@ args = 0, pretend = 0, frame = 8
 1425              		@ frame_needed = 1, uses_anonymous_args = 0
 1426 0000 80B5     		push	{r7, lr}
 1427              	.LCFI81:
 1428              		.cfi_def_cfa_offset 8
 1429              		.cfi_offset 7, -8
 1430              		.cfi_offset 14, -4
 1431 0002 82B0     		sub	sp, sp, #8
 1432              	.LCFI82:
 1433              		.cfi_def_cfa_offset 16
 1434 0004 00AF     		add	r7, sp, #0
 1435              	.LCFI83:
 1436              		.cfi_def_cfa_register 7
 1437 0006 7860     		str	r0, [r7, #4]
 1438              		.loc 8 31 17
 1439 0008 7B68     		ldr	r3, [r7, #4]
 1440 000a 1A68     		ldr	r2, [r3]
 1441              		.loc 8 31 26
 1442 000c 7B68     		ldr	r3, [r7, #4]
 1443 000e 5B68     		ldr	r3, [r3, #4]
 1444              		.loc 8 31 25
 1445 0010 1900     		movs	r1, r3
 1446 0012 1000     		movs	r0, r2
 1447 0014 FFF7FEFF 		bl	_ZN3mcu4GPIO3setEj
 1448              		.loc 8 31 30
 1449 0018 C046     		nop
 1450 001a BD46     		mov	sp, r7
 1451 001c 02B0     		add	sp, sp, #8
 1452              		@ sp needed
 1453 001e 80BD     		pop	{r7, pc}
 1454              		.cfi_endproc
 1455              	.LFE2195:
 1457              		.section	.text._ZN3Pin5clearEv,"axG",%progbits,_ZN3Pin5clearEv,comdat
 1458              		.align	1
 1459              		.weak	_ZN3Pin5clearEv
 1460              		.syntax unified
 1461              		.code	16
 1462              		.thumb_func
 1463              		.fpu softvfp
 1465              	_ZN3Pin5clearEv:
 1466              	.LFB2196:
  32:mculib/src/pin.h ****    void clear() { port.clear(n); }
 1467              		.loc 8 32 9
 1468              		.cfi_startproc
 1469              		@ args = 0, pretend = 0, frame = 8
ARM GAS  /tmp/ccOFgnnN.s 			page 49


 1470              		@ frame_needed = 1, uses_anonymous_args = 0
 1471 0000 80B5     		push	{r7, lr}
 1472              	.LCFI84:
 1473              		.cfi_def_cfa_offset 8
 1474              		.cfi_offset 7, -8
 1475              		.cfi_offset 14, -4
 1476 0002 82B0     		sub	sp, sp, #8
 1477              	.LCFI85:
 1478              		.cfi_def_cfa_offset 16
 1479 0004 00AF     		add	r7, sp, #0
 1480              	.LCFI86:
 1481              		.cfi_def_cfa_register 7
 1482 0006 7860     		str	r0, [r7, #4]
 1483              		.loc 8 32 19
 1484 0008 7B68     		ldr	r3, [r7, #4]
 1485 000a 1A68     		ldr	r2, [r3]
 1486              		.loc 8 32 30
 1487 000c 7B68     		ldr	r3, [r7, #4]
 1488 000e 5B68     		ldr	r3, [r3, #4]
 1489              		.loc 8 32 29
 1490 0010 1900     		movs	r1, r3
 1491 0012 1000     		movs	r0, r2
 1492 0014 FFF7FEFF 		bl	_ZN3mcu4GPIO5clearEj
 1493              		.loc 8 32 34
 1494 0018 C046     		nop
 1495 001a BD46     		mov	sp, r7
 1496 001c 02B0     		add	sp, sp, #8
 1497              		@ sp needed
 1498 001e 80BD     		pop	{r7, pc}
 1499              		.cfi_endproc
 1500              	.LFE2196:
 1502              		.section	.text._ZN3PinaSEb,"axG",%progbits,_ZN3PinaSEb,comdat
 1503              		.align	1
 1504              		.weak	_ZN3PinaSEb
 1505              		.syntax unified
 1506              		.code	16
 1507              		.thumb_func
 1508              		.fpu softvfp
 1510              	_ZN3PinaSEb:
 1511              	.LFB2199:
  33:mculib/src/pin.h ****    bool is_set() { return port.is_set(n); }
  34:mculib/src/pin.h ****    void toggle() { port.toggle(n); }
  35:mculib/src/pin.h **** 
  36:mculib/src/pin.h ****    bool operator=(bool v)
 1512              		.loc 8 36 9
 1513              		.cfi_startproc
 1514              		@ args = 0, pretend = 0, frame = 8
 1515              		@ frame_needed = 1, uses_anonymous_args = 0
 1516 0000 80B5     		push	{r7, lr}
 1517              	.LCFI87:
 1518              		.cfi_def_cfa_offset 8
 1519              		.cfi_offset 7, -8
 1520              		.cfi_offset 14, -4
 1521 0002 82B0     		sub	sp, sp, #8
 1522              	.LCFI88:
 1523              		.cfi_def_cfa_offset 16
 1524 0004 00AF     		add	r7, sp, #0
ARM GAS  /tmp/ccOFgnnN.s 			page 50


 1525              	.LCFI89:
 1526              		.cfi_def_cfa_register 7
 1527 0006 7860     		str	r0, [r7, #4]
 1528 0008 0A00     		movs	r2, r1
 1529 000a FB1C     		adds	r3, r7, #3
 1530 000c 1A70     		strb	r2, [r3]
  37:mculib/src/pin.h ****    {
  38:mculib/src/pin.h ****       v ? set() : clear();
 1531              		.loc 8 38 9
 1532 000e FB1C     		adds	r3, r7, #3
 1533 0010 1B78     		ldrb	r3, [r3]
 1534 0012 002B     		cmp	r3, #0
 1535 0014 04D0     		beq	.L80
 1536              		.loc 8 38 14 discriminator 1
 1537 0016 7B68     		ldr	r3, [r7, #4]
 1538 0018 1800     		movs	r0, r3
 1539 001a FFF7FEFF 		bl	_ZN3Pin3setEv
 1540 001e 03E0     		b	.L81
 1541              	.L80:
 1542              		.loc 8 38 24 discriminator 2
 1543 0020 7B68     		ldr	r3, [r7, #4]
 1544 0022 1800     		movs	r0, r3
 1545 0024 FFF7FEFF 		bl	_ZN3Pin5clearEv
 1546              	.L81:
  39:mculib/src/pin.h ****       return v;
 1547              		.loc 8 39 14
 1548 0028 FB1C     		adds	r3, r7, #3
 1549 002a 1B78     		ldrb	r3, [r3]
  40:mculib/src/pin.h ****    }
 1550              		.loc 8 40 4
 1551 002c 1800     		movs	r0, r3
 1552 002e BD46     		mov	sp, r7
 1553 0030 02B0     		add	sp, sp, #8
 1554              		@ sp needed
 1555 0032 80BD     		pop	{r7, pc}
 1556              		.cfi_endproc
 1557              	.LFE2199:
 1559              		.section	.text._ZN3mcu3ADC6enableEv,"axG",%progbits,_ZN3mcu3ADC6enableEv,comdat
 1560              		.align	1
 1561              		.weak	_ZN3mcu3ADC6enableEv
 1562              		.syntax unified
 1563              		.code	16
 1564              		.thumb_func
 1565              		.fpu softvfp
 1567              	_ZN3mcu3ADC6enableEv:
 1568              	.LFB2203:
 1569              		.file 9 "mculib/src/periph/adc_f0.h"
   1:mculib/src/periph/adc_f0.h **** #pragma once
   2:mculib/src/periph/adc_f0.h **** 
   3:mculib/src/periph/adc_f0.h **** #include "bits_adc_f0.h"
   4:mculib/src/periph/adc_f0.h **** #include "pins.h"
   5:mculib/src/periph/adc_f0.h **** 
   6:mculib/src/periph/adc_f0.h **** 
   7:mculib/src/periph/adc_f0.h **** namespace mcu {
   8:mculib/src/periph/adc_f0.h **** 
   9:mculib/src/periph/adc_f0.h **** class ADC
  10:mculib/src/periph/adc_f0.h **** {
ARM GAS  /tmp/ccOFgnnN.s 			page 51


  11:mculib/src/periph/adc_f0.h ****     volatile ADC_bits::SR     ISR;     // interrupt and status register,        offset: 0x00
  12:mculib/src/periph/adc_f0.h ****     volatile ADC_bits::IER    IER;     // interrupt enable register,            offset: 0x04
  13:mculib/src/periph/adc_f0.h ****     volatile ADC_bits::CR     CR;      // control register,                     offset: 0x08
  14:mculib/src/periph/adc_f0.h ****     volatile ADC_bits::CFGR   CFGR;    // configuration register 1,2            offset: 0x0C
  15:mculib/src/periph/adc_f0.h ****     volatile ADC_bits::SMPR   SMPR;    // sampling time register,               offset: 0x14
  16:mculib/src/periph/adc_f0.h ****     volatile uint32_t         RES1[2]; // Reserved,                                     0x18
  17:mculib/src/periph/adc_f0.h ****     volatile ADC_bits::TR     TR;      // analog watchdog 1 threshold register, offset: 0x20
  18:mculib/src/periph/adc_f0.h ****     volatile uint32_t         RES2;    // Reserved,                                     0x24
  19:mculib/src/periph/adc_f0.h ****     volatile ADC_bits::CHSELR CHSELR;  // group regular sequencer register,     offset: 0x28
  20:mculib/src/periph/adc_f0.h ****     volatile uint32_t         RES[5];  // Reserved,                                     0x2C
  21:mculib/src/periph/adc_f0.h ****     volatile uint32_t         DR;      // group regular data register,          offset: 0x40
  22:mculib/src/periph/adc_f0.h **** public:
  23:mculib/src/periph/adc_f0.h ****     using CMSIS_type  = ADC_TypeDef;
  24:mculib/src/periph/adc_f0.h ****     using DMA_mode    = ADC_bits::CFGR::DMA_mode;
  25:mculib/src/periph/adc_f0.h ****     using Clock       = ADC_bits::CFGR::Clock;
  26:mculib/src/periph/adc_f0.h ****     using Resolution  = ADC_bits::CFGR::Resolution;
  27:mculib/src/periph/adc_f0.h ****     using Sample_time = ADC_bits::SMPR::Sample_time;
  28:mculib/src/periph/adc_f0.h **** 
  29:mculib/src/periph/adc_f0.h ****     ADC& enable()            { CR.ADEN  = true;    return *this; }
 1570              		.loc 9 29 10
 1571              		.cfi_startproc
 1572              		@ args = 0, pretend = 0, frame = 8
 1573              		@ frame_needed = 1, uses_anonymous_args = 0
 1574 0000 80B5     		push	{r7, lr}
 1575              	.LCFI90:
 1576              		.cfi_def_cfa_offset 8
 1577              		.cfi_offset 7, -8
 1578              		.cfi_offset 14, -4
 1579 0002 82B0     		sub	sp, sp, #8
 1580              	.LCFI91:
 1581              		.cfi_def_cfa_offset 16
 1582 0004 00AF     		add	r7, sp, #0
 1583              	.LCFI92:
 1584              		.cfi_def_cfa_register 7
 1585 0006 7860     		str	r0, [r7, #4]
 1586              		.loc 9 29 41
 1587 0008 7B68     		ldr	r3, [r7, #4]
 1588 000a 9A68     		ldr	r2, [r3, #8]
 1589 000c 0121     		movs	r1, #1
 1590 000e 0A43     		orrs	r2, r1
 1591 0010 9A60     		str	r2, [r3, #8]
 1592              		.loc 9 29 60
 1593 0012 7B68     		ldr	r3, [r7, #4]
 1594              		.loc 9 29 66
 1595 0014 1800     		movs	r0, r3
 1596 0016 BD46     		mov	sp, r7
 1597 0018 02B0     		add	sp, sp, #8
 1598              		@ sp needed
 1599 001a 80BD     		pop	{r7, pc}
 1600              		.cfi_endproc
 1601              	.LFE2203:
 1603              		.section	.text._ZN3mcu3ADC5startEv,"axG",%progbits,_ZN3mcu3ADC5startEv,comdat
 1604              		.align	1
 1605              		.weak	_ZN3mcu3ADC5startEv
 1606              		.syntax unified
 1607              		.code	16
 1608              		.thumb_func
ARM GAS  /tmp/ccOFgnnN.s 			page 52


 1609              		.fpu softvfp
 1611              	_ZN3mcu3ADC5startEv:
 1612              	.LFB2206:
  30:mculib/src/periph/adc_f0.h ****     ADC& disable()           { CR.ADDIS = true;    return *this; }
  31:mculib/src/periph/adc_f0.h ****     bool is_enable()         { return CR.ADEN; }
  32:mculib/src/periph/adc_f0.h ****     ADC& start()             { CR.ADSTART  = true; return *this;}
 1613              		.loc 9 32 10
 1614              		.cfi_startproc
 1615              		@ args = 0, pretend = 0, frame = 8
 1616              		@ frame_needed = 1, uses_anonymous_args = 0
 1617 0000 80B5     		push	{r7, lr}
 1618              	.LCFI93:
 1619              		.cfi_def_cfa_offset 8
 1620              		.cfi_offset 7, -8
 1621              		.cfi_offset 14, -4
 1622 0002 82B0     		sub	sp, sp, #8
 1623              	.LCFI94:
 1624              		.cfi_def_cfa_offset 16
 1625 0004 00AF     		add	r7, sp, #0
 1626              	.LCFI95:
 1627              		.cfi_def_cfa_register 7
 1628 0006 7860     		str	r0, [r7, #4]
 1629              		.loc 9 32 44
 1630 0008 7B68     		ldr	r3, [r7, #4]
 1631 000a 9A68     		ldr	r2, [r3, #8]
 1632 000c 0421     		movs	r1, #4
 1633 000e 0A43     		orrs	r2, r1
 1634 0010 9A60     		str	r2, [r3, #8]
 1635              		.loc 9 32 60
 1636 0012 7B68     		ldr	r3, [r7, #4]
 1637              		.loc 9 32 65
 1638 0014 1800     		movs	r0, r3
 1639 0016 BD46     		mov	sp, r7
 1640 0018 02B0     		add	sp, sp, #8
 1641              		@ sp needed
 1642 001a 80BD     		pop	{r7, pc}
 1643              		.cfi_endproc
 1644              	.LFE2206:
 1646              		.section	.text._ZN3mcu3ADC10dma_enableEv,"axG",%progbits,_ZN3mcu3ADC10dma_enableEv,comdat
 1647              		.align	1
 1648              		.weak	_ZN3mcu3ADC10dma_enableEv
 1649              		.syntax unified
 1650              		.code	16
 1651              		.thumb_func
 1652              		.fpu softvfp
 1654              	_ZN3mcu3ADC10dma_enableEv:
 1655              	.LFB2207:
  33:mculib/src/periph/adc_f0.h ****     ADC& dma_enable()        { CFGR.DMAEN  = true; return *this; }
 1656              		.loc 9 33 10
 1657              		.cfi_startproc
 1658              		@ args = 0, pretend = 0, frame = 8
 1659              		@ frame_needed = 1, uses_anonymous_args = 0
 1660 0000 80B5     		push	{r7, lr}
 1661              	.LCFI96:
 1662              		.cfi_def_cfa_offset 8
 1663              		.cfi_offset 7, -8
 1664              		.cfi_offset 14, -4
ARM GAS  /tmp/ccOFgnnN.s 			page 53


 1665 0002 82B0     		sub	sp, sp, #8
 1666              	.LCFI97:
 1667              		.cfi_def_cfa_offset 16
 1668 0004 00AF     		add	r7, sp, #0
 1669              	.LCFI98:
 1670              		.cfi_def_cfa_register 7
 1671 0006 7860     		str	r0, [r7, #4]
 1672              		.loc 9 33 44
 1673 0008 7B68     		ldr	r3, [r7, #4]
 1674 000a DA68     		ldr	r2, [r3, #12]
 1675 000c 0121     		movs	r1, #1
 1676 000e 0A43     		orrs	r2, r1
 1677 0010 DA60     		str	r2, [r3, #12]
 1678              		.loc 9 33 60
 1679 0012 7B68     		ldr	r3, [r7, #4]
 1680              		.loc 9 33 66
 1681 0014 1800     		movs	r0, r3
 1682 0016 BD46     		mov	sp, r7
 1683 0018 02B0     		add	sp, sp, #8
 1684              		@ sp needed
 1685 001a 80BD     		pop	{r7, pc}
 1686              		.cfi_endproc
 1687              	.LFE2207:
 1689              		.section	.text._ZN3mcu3ADC3setENS_8ADC_bits4CFGR8DMA_modeE,"axG",%progbits,_ZN3mcu3ADC3setENS_8ADC
 1690              		.align	1
 1691              		.weak	_ZN3mcu3ADC3setENS_8ADC_bits4CFGR8DMA_modeE
 1692              		.syntax unified
 1693              		.code	16
 1694              		.thumb_func
 1695              		.fpu softvfp
 1697              	_ZN3mcu3ADC3setENS_8ADC_bits4CFGR8DMA_modeE:
 1698              	.LFB2208:
  34:mculib/src/periph/adc_f0.h ****     ADC& set (DMA_mode v)    { CFGR.DMACFG = v;    return *this; }
 1699              		.loc 9 34 10
 1700              		.cfi_startproc
 1701              		@ args = 0, pretend = 0, frame = 8
 1702              		@ frame_needed = 1, uses_anonymous_args = 0
 1703 0000 80B5     		push	{r7, lr}
 1704              	.LCFI99:
 1705              		.cfi_def_cfa_offset 8
 1706              		.cfi_offset 7, -8
 1707              		.cfi_offset 14, -4
 1708 0002 82B0     		sub	sp, sp, #8
 1709              	.LCFI100:
 1710              		.cfi_def_cfa_offset 16
 1711 0004 00AF     		add	r7, sp, #0
 1712              	.LCFI101:
 1713              		.cfi_def_cfa_register 7
 1714 0006 7860     		str	r0, [r7, #4]
 1715 0008 0A00     		movs	r2, r1
 1716 000a FB1C     		adds	r3, r7, #3
 1717 000c 1A70     		strb	r2, [r3]
 1718              		.loc 9 34 46
 1719 000e FB1C     		adds	r3, r7, #3
 1720 0010 1B78     		ldrb	r3, [r3]
 1721 0012 0122     		movs	r2, #1
 1722 0014 1340     		ands	r3, r2
ARM GAS  /tmp/ccOFgnnN.s 			page 54


 1723 0016 DAB2     		uxtb	r2, r3
 1724              		.loc 9 34 44
 1725 0018 7B68     		ldr	r3, [r7, #4]
 1726 001a 0121     		movs	r1, #1
 1727 001c 0A40     		ands	r2, r1
 1728 001e 5200     		lsls	r2, r2, #1
 1729 0020 D968     		ldr	r1, [r3, #12]
 1730 0022 0220     		movs	r0, #2
 1731 0024 8143     		bics	r1, r0
 1732 0026 0A43     		orrs	r2, r1
 1733 0028 DA60     		str	r2, [r3, #12]
 1734              		.loc 9 34 60
 1735 002a 7B68     		ldr	r3, [r7, #4]
 1736              		.loc 9 34 66
 1737 002c 1800     		movs	r0, r3
 1738 002e BD46     		mov	sp, r7
 1739 0030 02B0     		add	sp, sp, #8
 1740              		@ sp needed
 1741 0032 80BD     		pop	{r7, pc}
 1742              		.cfi_endproc
 1743              	.LFE2208:
 1745              		.section	.text._ZN3mcu3ADC14set_continuousEv,"axG",%progbits,_ZN3mcu3ADC14set_continuousEv,comdat
 1746              		.align	1
 1747              		.weak	_ZN3mcu3ADC14set_continuousEv
 1748              		.syntax unified
 1749              		.code	16
 1750              		.thumb_func
 1751              		.fpu softvfp
 1753              	_ZN3mcu3ADC14set_continuousEv:
 1754              	.LFB2209:
  35:mculib/src/periph/adc_f0.h ****     ADC& set_continuous()    { CFGR.CONT   = true; return *this; }
 1755              		.loc 9 35 10
 1756              		.cfi_startproc
 1757              		@ args = 0, pretend = 0, frame = 8
 1758              		@ frame_needed = 1, uses_anonymous_args = 0
 1759 0000 80B5     		push	{r7, lr}
 1760              	.LCFI102:
 1761              		.cfi_def_cfa_offset 8
 1762              		.cfi_offset 7, -8
 1763              		.cfi_offset 14, -4
 1764 0002 82B0     		sub	sp, sp, #8
 1765              	.LCFI103:
 1766              		.cfi_def_cfa_offset 16
 1767 0004 00AF     		add	r7, sp, #0
 1768              	.LCFI104:
 1769              		.cfi_def_cfa_register 7
 1770 0006 7860     		str	r0, [r7, #4]
 1771              		.loc 9 35 44
 1772 0008 7B68     		ldr	r3, [r7, #4]
 1773 000a DA68     		ldr	r2, [r3, #12]
 1774 000c 8021     		movs	r1, #128
 1775 000e 8901     		lsls	r1, r1, #6
 1776 0010 0A43     		orrs	r2, r1
 1777 0012 DA60     		str	r2, [r3, #12]
 1778              		.loc 9 35 60
 1779 0014 7B68     		ldr	r3, [r7, #4]
 1780              		.loc 9 35 66
ARM GAS  /tmp/ccOFgnnN.s 			page 55


 1781 0016 1800     		movs	r0, r3
 1782 0018 BD46     		mov	sp, r7
 1783 001a 02B0     		add	sp, sp, #8
 1784              		@ sp needed
 1785 001c 80BD     		pop	{r7, pc}
 1786              		.cfi_endproc
 1787              	.LFE2209:
 1789              		.section	.text._ZN3mcu3ADC3setENS_8ADC_bits4CFGR5ClockE,"axG",%progbits,_ZN3mcu3ADC3setENS_8ADC_bi
 1790              		.align	1
 1791              		.weak	_ZN3mcu3ADC3setENS_8ADC_bits4CFGR5ClockE
 1792              		.syntax unified
 1793              		.code	16
 1794              		.thumb_func
 1795              		.fpu softvfp
 1797              	_ZN3mcu3ADC3setENS_8ADC_bits4CFGR5ClockE:
 1798              	.LFB2210:
  36:mculib/src/periph/adc_f0.h ****     ADC& set (Clock v)       { CFGR.CKMODE = v;    return *this; }
 1799              		.loc 9 36 10
 1800              		.cfi_startproc
 1801              		@ args = 0, pretend = 0, frame = 8
 1802              		@ frame_needed = 1, uses_anonymous_args = 0
 1803 0000 80B5     		push	{r7, lr}
 1804              	.LCFI105:
 1805              		.cfi_def_cfa_offset 8
 1806              		.cfi_offset 7, -8
 1807              		.cfi_offset 14, -4
 1808 0002 82B0     		sub	sp, sp, #8
 1809              	.LCFI106:
 1810              		.cfi_def_cfa_offset 16
 1811 0004 00AF     		add	r7, sp, #0
 1812              	.LCFI107:
 1813              		.cfi_def_cfa_register 7
 1814 0006 7860     		str	r0, [r7, #4]
 1815 0008 0A00     		movs	r2, r1
 1816 000a FB1C     		adds	r3, r7, #3
 1817 000c 1A70     		strb	r2, [r3]
 1818              		.loc 9 36 46
 1819 000e FB1C     		adds	r3, r7, #3
 1820 0010 1B78     		ldrb	r3, [r3]
 1821 0012 0322     		movs	r2, #3
 1822 0014 1340     		ands	r3, r2
 1823 0016 DAB2     		uxtb	r2, r3
 1824              		.loc 9 36 44
 1825 0018 7B68     		ldr	r3, [r7, #4]
 1826 001a 9207     		lsls	r2, r2, #30
 1827 001c 1969     		ldr	r1, [r3, #16]
 1828 001e 8900     		lsls	r1, r1, #2
 1829 0020 8908     		lsrs	r1, r1, #2
 1830 0022 0A43     		orrs	r2, r1
 1831 0024 1A61     		str	r2, [r3, #16]
 1832              		.loc 9 36 60
 1833 0026 7B68     		ldr	r3, [r7, #4]
 1834              		.loc 9 36 66
 1835 0028 1800     		movs	r0, r3
 1836 002a BD46     		mov	sp, r7
 1837 002c 02B0     		add	sp, sp, #8
 1838              		@ sp needed
ARM GAS  /tmp/ccOFgnnN.s 			page 56


 1839 002e 80BD     		pop	{r7, pc}
 1840              		.cfi_endproc
 1841              	.LFE2210:
 1843              		.section	.text._ZN3mcu3ADC3setENS_8ADC_bits4CFGR10ResolutionE,"axG",%progbits,_ZN3mcu3ADC3setENS_8
 1844              		.align	1
 1845              		.weak	_ZN3mcu3ADC3setENS_8ADC_bits4CFGR10ResolutionE
 1846              		.syntax unified
 1847              		.code	16
 1848              		.thumb_func
 1849              		.fpu softvfp
 1851              	_ZN3mcu3ADC3setENS_8ADC_bits4CFGR10ResolutionE:
 1852              	.LFB2211:
  37:mculib/src/periph/adc_f0.h ****     ADC& set (Resolution v)  { CFGR.RES    = v;    return *this; }
 1853              		.loc 9 37 10
 1854              		.cfi_startproc
 1855              		@ args = 0, pretend = 0, frame = 8
 1856              		@ frame_needed = 1, uses_anonymous_args = 0
 1857 0000 80B5     		push	{r7, lr}
 1858              	.LCFI108:
 1859              		.cfi_def_cfa_offset 8
 1860              		.cfi_offset 7, -8
 1861              		.cfi_offset 14, -4
 1862 0002 82B0     		sub	sp, sp, #8
 1863              	.LCFI109:
 1864              		.cfi_def_cfa_offset 16
 1865 0004 00AF     		add	r7, sp, #0
 1866              	.LCFI110:
 1867              		.cfi_def_cfa_register 7
 1868 0006 7860     		str	r0, [r7, #4]
 1869 0008 0A00     		movs	r2, r1
 1870 000a FB1C     		adds	r3, r7, #3
 1871 000c 1A70     		strb	r2, [r3]
 1872              		.loc 9 37 46
 1873 000e FB1C     		adds	r3, r7, #3
 1874 0010 1B78     		ldrb	r3, [r3]
 1875 0012 0322     		movs	r2, #3
 1876 0014 1340     		ands	r3, r2
 1877 0016 DAB2     		uxtb	r2, r3
 1878              		.loc 9 37 44
 1879 0018 7B68     		ldr	r3, [r7, #4]
 1880 001a 0321     		movs	r1, #3
 1881 001c 0A40     		ands	r2, r1
 1882 001e D200     		lsls	r2, r2, #3
 1883 0020 D968     		ldr	r1, [r3, #12]
 1884 0022 1820     		movs	r0, #24
 1885 0024 8143     		bics	r1, r0
 1886 0026 0A43     		orrs	r2, r1
 1887 0028 DA60     		str	r2, [r3, #12]
 1888              		.loc 9 37 60
 1889 002a 7B68     		ldr	r3, [r7, #4]
 1890              		.loc 9 37 66
 1891 002c 1800     		movs	r0, r3
 1892 002e BD46     		mov	sp, r7
 1893 0030 02B0     		add	sp, sp, #8
 1894              		@ sp needed
 1895 0032 80BD     		pop	{r7, pc}
 1896              		.cfi_endproc
ARM GAS  /tmp/ccOFgnnN.s 			page 57


 1897              	.LFE2211:
 1899              		.section	.text._ZN3mcu3ADC3setENS_8ADC_bits4SMPR11Sample_timeE,"axG",%progbits,_ZN3mcu3ADC3setENS_
 1900              		.align	1
 1901              		.weak	_ZN3mcu3ADC3setENS_8ADC_bits4SMPR11Sample_timeE
 1902              		.syntax unified
 1903              		.code	16
 1904              		.thumb_func
 1905              		.fpu softvfp
 1907              	_ZN3mcu3ADC3setENS_8ADC_bits4SMPR11Sample_timeE:
 1908              	.LFB2212:
  38:mculib/src/periph/adc_f0.h ****     ADC& set (Sample_time v) { SMPR.SMP    = v;    return *this; }
 1909              		.loc 9 38 10
 1910              		.cfi_startproc
 1911              		@ args = 0, pretend = 0, frame = 8
 1912              		@ frame_needed = 1, uses_anonymous_args = 0
 1913 0000 80B5     		push	{r7, lr}
 1914              	.LCFI111:
 1915              		.cfi_def_cfa_offset 8
 1916              		.cfi_offset 7, -8
 1917              		.cfi_offset 14, -4
 1918 0002 82B0     		sub	sp, sp, #8
 1919              	.LCFI112:
 1920              		.cfi_def_cfa_offset 16
 1921 0004 00AF     		add	r7, sp, #0
 1922              	.LCFI113:
 1923              		.cfi_def_cfa_register 7
 1924 0006 7860     		str	r0, [r7, #4]
 1925 0008 0A00     		movs	r2, r1
 1926 000a FB1C     		adds	r3, r7, #3
 1927 000c 1A70     		strb	r2, [r3]
 1928              		.loc 9 38 46
 1929 000e FB1C     		adds	r3, r7, #3
 1930 0010 1B78     		ldrb	r3, [r3]
 1931 0012 0722     		movs	r2, #7
 1932 0014 1340     		ands	r3, r2
 1933 0016 DAB2     		uxtb	r2, r3
 1934              		.loc 9 38 44
 1935 0018 7B68     		ldr	r3, [r7, #4]
 1936 001a 0721     		movs	r1, #7
 1937 001c 0A40     		ands	r2, r1
 1938 001e 5969     		ldr	r1, [r3, #20]
 1939 0020 0720     		movs	r0, #7
 1940 0022 8143     		bics	r1, r0
 1941 0024 0A43     		orrs	r2, r1
 1942 0026 5A61     		str	r2, [r3, #20]
 1943              		.loc 9 38 60
 1944 0028 7B68     		ldr	r3, [r7, #4]
 1945              		.loc 9 38 66
 1946 002a 1800     		movs	r0, r3
 1947 002c BD46     		mov	sp, r7
 1948 002e 02B0     		add	sp, sp, #8
 1949              		@ sp needed
 1950 0030 80BD     		pop	{r7, pc}
 1951              		.cfi_endproc
 1952              	.LFE2212:
 1954              		.section	.text._ZN3mcu3ADC8is_readyEv,"axG",%progbits,_ZN3mcu3ADC8is_readyEv,comdat
 1955              		.align	1
ARM GAS  /tmp/ccOFgnnN.s 			page 58


 1956              		.weak	_ZN3mcu3ADC8is_readyEv
 1957              		.syntax unified
 1958              		.code	16
 1959              		.thumb_func
 1960              		.fpu softvfp
 1962              	_ZN3mcu3ADC8is_readyEv:
 1963              	.LFB2213:
  39:mculib/src/periph/adc_f0.h ****     bool is_ready()          { return ISR.ADRDY; }
 1964              		.loc 9 39 10
 1965              		.cfi_startproc
 1966              		@ args = 0, pretend = 0, frame = 8
 1967              		@ frame_needed = 1, uses_anonymous_args = 0
 1968 0000 80B5     		push	{r7, lr}
 1969              	.LCFI114:
 1970              		.cfi_def_cfa_offset 8
 1971              		.cfi_offset 7, -8
 1972              		.cfi_offset 14, -4
 1973 0002 82B0     		sub	sp, sp, #8
 1974              	.LCFI115:
 1975              		.cfi_def_cfa_offset 16
 1976 0004 00AF     		add	r7, sp, #0
 1977              	.LCFI116:
 1978              		.cfi_def_cfa_register 7
 1979 0006 7860     		str	r0, [r7, #4]
 1980              		.loc 9 39 43
 1981 0008 7B68     		ldr	r3, [r7, #4]
 1982 000a 1B68     		ldr	r3, [r3]
 1983 000c DB07     		lsls	r3, r3, #31
 1984 000e DB0F     		lsrs	r3, r3, #31
 1985 0010 DBB2     		uxtb	r3, r3
 1986              		.loc 9 39 50
 1987 0012 1800     		movs	r0, r3
 1988 0014 BD46     		mov	sp, r7
 1989 0016 02B0     		add	sp, sp, #8
 1990              		@ sp needed
 1991 0018 80BD     		pop	{r7, pc}
 1992              		.cfi_endproc
 1993              	.LFE2213:
 1995              		.section	.text._ZN3mcu3ADC8set_busyEv,"axG",%progbits,_ZN3mcu3ADC8set_busyEv,comdat
 1996              		.align	1
 1997              		.weak	_ZN3mcu3ADC8set_busyEv
 1998              		.syntax unified
 1999              		.code	16
 2000              		.thumb_func
 2001              		.fpu softvfp
 2003              	_ZN3mcu3ADC8set_busyEv:
 2004              	.LFB2214:
  40:mculib/src/periph/adc_f0.h ****     ADC& set_busy()          { ISR.ADRDY = true;   return *this; }
 2005              		.loc 9 40 10
 2006              		.cfi_startproc
 2007              		@ args = 0, pretend = 0, frame = 8
 2008              		@ frame_needed = 1, uses_anonymous_args = 0
 2009 0000 80B5     		push	{r7, lr}
 2010              	.LCFI117:
 2011              		.cfi_def_cfa_offset 8
 2012              		.cfi_offset 7, -8
 2013              		.cfi_offset 14, -4
ARM GAS  /tmp/ccOFgnnN.s 			page 59


 2014 0002 82B0     		sub	sp, sp, #8
 2015              	.LCFI118:
 2016              		.cfi_def_cfa_offset 16
 2017 0004 00AF     		add	r7, sp, #0
 2018              	.LCFI119:
 2019              		.cfi_def_cfa_register 7
 2020 0006 7860     		str	r0, [r7, #4]
 2021              		.loc 9 40 42
 2022 0008 7B68     		ldr	r3, [r7, #4]
 2023 000a 1A68     		ldr	r2, [r3]
 2024 000c 0121     		movs	r1, #1
 2025 000e 0A43     		orrs	r2, r1
 2026 0010 1A60     		str	r2, [r3]
 2027              		.loc 9 40 60
 2028 0012 7B68     		ldr	r3, [r7, #4]
 2029              		.loc 9 40 66
 2030 0014 1800     		movs	r0, r3
 2031 0016 BD46     		mov	sp, r7
 2032 0018 02B0     		add	sp, sp, #8
 2033              		@ sp needed
 2034 001a 80BD     		pop	{r7, pc}
 2035              		.cfi_endproc
 2036              	.LFE2214:
 2038              		.section	.text._ZN3mcu3ADC4dataEv,"axG",%progbits,_ZN3mcu3ADC4dataEv,comdat
 2039              		.align	1
 2040              		.weak	_ZN3mcu3ADC4dataEv
 2041              		.syntax unified
 2042              		.code	16
 2043              		.thumb_func
 2044              		.fpu softvfp
 2046              	_ZN3mcu3ADC4dataEv:
 2047              	.LFB2217:
  41:mculib/src/periph/adc_f0.h ****     ADC& stop()              { CR.ADSTP  = true;   return *this; }
  42:mculib/src/periph/adc_f0.h ****     bool is_stoping()        { return CR.ADSTP; }
  43:mculib/src/periph/adc_f0.h ****     volatile const uint32_t& data() { return DR; }
 2048              		.loc 9 43 30
 2049              		.cfi_startproc
 2050              		@ args = 0, pretend = 0, frame = 8
 2051              		@ frame_needed = 1, uses_anonymous_args = 0
 2052 0000 80B5     		push	{r7, lr}
 2053              	.LCFI120:
 2054              		.cfi_def_cfa_offset 8
 2055              		.cfi_offset 7, -8
 2056              		.cfi_offset 14, -4
 2057 0002 82B0     		sub	sp, sp, #8
 2058              	.LCFI121:
 2059              		.cfi_def_cfa_offset 16
 2060 0004 00AF     		add	r7, sp, #0
 2061              	.LCFI122:
 2062              		.cfi_def_cfa_register 7
 2063 0006 7860     		str	r0, [r7, #4]
 2064              		.loc 9 43 46
 2065 0008 7B68     		ldr	r3, [r7, #4]
 2066 000a 4033     		adds	r3, r3, #64
 2067              		.loc 9 43 50
 2068 000c 1800     		movs	r0, r3
 2069 000e BD46     		mov	sp, r7
ARM GAS  /tmp/ccOFgnnN.s 			page 60


 2070 0010 02B0     		add	sp, sp, #8
 2071              		@ sp needed
 2072 0012 80BD     		pop	{r7, pc}
 2073              		.cfi_endproc
 2074              	.LFE2217:
 2076              		.section	.text._ZN3mcu7registrIVNS_8DMA_bits4IFCREEERVDaRT_,"axG",%progbits,_ZN3mcu7registrIVNS_8D
 2077              		.align	1
 2078              		.weak	_ZN3mcu7registrIVNS_8DMA_bits4IFCREEERVDaRT_
 2079              		.syntax unified
 2080              		.code	16
 2081              		.thumb_func
 2082              		.fpu softvfp
 2084              	_ZN3mcu7registrIVNS_8DMA_bits4IFCREEERVDaRT_:
 2085              	.LFB2229:
 2086              		.file 10 "mculib/src/periph/periph.h"
   1:mculib/src/periph/periph.h **** #pragma once
   2:mculib/src/periph/periph.h **** 
   3:mculib/src/periph/periph.h **** #include <type_traits>
   4:mculib/src/periph/periph.h **** #include <cstddef>
   5:mculib/src/periph/periph.h **** #include <cstdint>
   6:mculib/src/periph/periph.h **** 
   7:mculib/src/periph/periph.h **** #if   defined(STM32F030x6)
   8:mculib/src/periph/periph.h ****    #define STM32F0
   9:mculib/src/periph/periph.h **** #elif defined(STM32F103xB)
  10:mculib/src/periph/periph.h ****    #define STM32F1
  11:mculib/src/periph/periph.h **** #elif defined(STM32F405xx)
  12:mculib/src/periph/periph.h ****    #define STM32F4
  13:mculib/src/periph/periph.h **** #elif defined(STM32F746xx)
  14:mculib/src/periph/periph.h ****    #define STM32F7
  15:mculib/src/periph/periph.h **** #else
  16:mculib/src/periph/periph.h ****    #define STM32F0
  17:mculib/src/periph/periph.h **** #endif
  18:mculib/src/periph/periph.h **** 
  19:mculib/src/periph/periph.h **** #if   defined(STM32F0)
  20:mculib/src/periph/periph.h ****    #include "stm32f0xx.h"
  21:mculib/src/periph/periph.h **** #elif defined(STM32F1)
  22:mculib/src/periph/periph.h ****    #include "stm32f1xx.h"
  23:mculib/src/periph/periph.h **** #elif defined(STM32F4)
  24:mculib/src/periph/periph.h ****    #include "stm32f4xx.h"
  25:mculib/src/periph/periph.h **** #elif defined(STM32F7)
  26:mculib/src/periph/periph.h ****    #include "stm32f7xx.h"
  27:mculib/src/periph/periph.h **** #endif
  28:mculib/src/periph/periph.h **** 
  29:mculib/src/periph/periph.h **** #undef RCC
  30:mculib/src/periph/periph.h **** #undef GPIOA
  31:mculib/src/periph/periph.h **** #undef GPIOB
  32:mculib/src/periph/periph.h **** #undef GPIOC
  33:mculib/src/periph/periph.h **** #undef GPIOD
  34:mculib/src/periph/periph.h **** #undef GPIOE
  35:mculib/src/periph/periph.h **** #undef GPIOF
  36:mculib/src/periph/periph.h **** #undef GPIOG
  37:mculib/src/periph/periph.h **** #undef GPIOH
  38:mculib/src/periph/periph.h **** #undef GPIOI
  39:mculib/src/periph/periph.h **** #undef GPIOJ
  40:mculib/src/periph/periph.h **** #undef GPIOK
  41:mculib/src/periph/periph.h **** #undef AFIO
  42:mculib/src/periph/periph.h **** #undef USART1
ARM GAS  /tmp/ccOFgnnN.s 			page 61


  43:mculib/src/periph/periph.h **** #undef USART2
  44:mculib/src/periph/periph.h **** #undef USART3
  45:mculib/src/periph/periph.h **** #undef UART4
  46:mculib/src/periph/periph.h **** #undef UART5
  47:mculib/src/periph/periph.h **** #undef USART6
  48:mculib/src/periph/periph.h **** #undef UART7
  49:mculib/src/periph/periph.h **** #undef UART8
  50:mculib/src/periph/periph.h **** #undef SysTick
  51:mculib/src/periph/periph.h **** #undef TIM1
  52:mculib/src/periph/periph.h **** #undef TIM2
  53:mculib/src/periph/periph.h **** #undef TIM3
  54:mculib/src/periph/periph.h **** #undef TIM4
  55:mculib/src/periph/periph.h **** #undef TIM8
  56:mculib/src/periph/periph.h **** #undef TIM14
  57:mculib/src/periph/periph.h **** #undef TIM16
  58:mculib/src/periph/periph.h **** #undef TIM17
  59:mculib/src/periph/periph.h **** #undef FLASH
  60:mculib/src/periph/periph.h **** #undef DMA1
  61:mculib/src/periph/periph.h **** #undef DMA2
  62:mculib/src/periph/periph.h **** #undef ADC
  63:mculib/src/periph/periph.h **** #undef ADC1
  64:mculib/src/periph/periph.h **** #undef ADC2
  65:mculib/src/periph/periph.h **** #undef ADC3
  66:mculib/src/periph/periph.h **** #undef SPI1
  67:mculib/src/periph/periph.h **** #undef SPI2
  68:mculib/src/periph/periph.h **** #undef SPI3
  69:mculib/src/periph/periph.h **** #undef EXTI
  70:mculib/src/periph/periph.h **** 
  71:mculib/src/periph/periph.h **** 
  72:mculib/src/periph/periph.h **** namespace mcu {
  73:mculib/src/periph/periph.h **** 
  74:mculib/src/periph/periph.h **** enum class Periph {
  75:mculib/src/periph/periph.h ****     RCC,
  76:mculib/src/periph/periph.h **** #if   defined(STM32F0)
  77:mculib/src/periph/periph.h ****     GPIOA, GPIOB, GPIOC, GPIOD, GPIOF,
  78:mculib/src/periph/periph.h **** #elif defined(STM32F1)
  79:mculib/src/periph/periph.h ****     GPIOA, GPIOB, GPIOC, GPIOD, GPIOE, AFIO,
  80:mculib/src/periph/periph.h **** #elif defined(STM32F4) || defined(STM32F7)
  81:mculib/src/periph/periph.h ****     GPIOA, GPIOB, GPIOC, GPIOD, GPIOF, GPIOE, GPIOG, GPIOH, GPIOI,
  82:mculib/src/periph/periph.h **** #endif
  83:mculib/src/periph/periph.h **** #if   defined(STM32F0)
  84:mculib/src/periph/periph.h ****     USART1,
  85:mculib/src/periph/periph.h **** #elif defined(STM32F1)
  86:mculib/src/periph/periph.h ****     USART1, USART2, USART3,
  87:mculib/src/periph/periph.h **** #elif defined(STM32F4)
  88:mculib/src/periph/periph.h ****     USART1, USART2, USART3, USART4, USART5, USART6,
  89:mculib/src/periph/periph.h **** #elif defined(STM32F7)
  90:mculib/src/periph/periph.h ****     USART1, USART2, USART3, USART4, USART5, USART6, USART7, USART8, 
  91:mculib/src/periph/periph.h **** #endif
  92:mculib/src/periph/periph.h **** #if defined(STM32F0)
  93:mculib/src/periph/periph.h ****     DMA1, DMA1_stream1, DMA1_stream2, DMA1_stream3, DMA1_stream4, DMA1_stream5,
  94:mculib/src/periph/periph.h **** #elif defined(STM32F1)
  95:mculib/src/periph/periph.h ****     DMA1, DMA1_stream1, DMA1_stream2, DMA1_stream3, DMA1_stream4, DMA1_stream5, DMA1_stream6, DMA1_
  96:mculib/src/periph/periph.h **** #elif defined(STM32F4) or defined(STM32F7)
  97:mculib/src/periph/periph.h ****     DMA1, DMA2,
  98:mculib/src/periph/periph.h ****     DMA1_stream0, DMA1_stream1, DMA1_stream2, DMA1_stream3, DMA1_stream4, DMA1_stream5, DMA1_stream
  99:mculib/src/periph/periph.h ****     DMA2_stream0, DMA2_stream1, DMA2_stream2, DMA2_stream3, DMA2_stream4, DMA2_stream5, DMA2_stream
ARM GAS  /tmp/ccOFgnnN.s 			page 62


 100:mculib/src/periph/periph.h **** #endif
 101:mculib/src/periph/periph.h **** #if defined(STM32F0) or defined(STM32F1)
 102:mculib/src/periph/periph.h ****     ADC1,
 103:mculib/src/periph/periph.h **** #elif defined(STM32F4) or defined(STM32F7)
 104:mculib/src/periph/periph.h ****     ADC1, ADC2, ADC3,
 105:mculib/src/periph/periph.h **** #endif
 106:mculib/src/periph/periph.h ****     SysTick,
 107:mculib/src/periph/periph.h ****     TIM1, TIM2, TIM3, TIM4, TIM14, TIM16, TIM17, TIM8,
 108:mculib/src/periph/periph.h ****     SPI1, SPI2, SPI3,
 109:mculib/src/periph/periph.h ****     FLASH,
 110:mculib/src/periph/periph.h ****     ADCC,
 111:mculib/src/periph/periph.h **** #if defined(STM32F7)
 112:mculib/src/periph/periph.h ****     USB_FS_core,
 113:mculib/src/periph/periph.h ****     USB_HS_core,
 114:mculib/src/periph/periph.h ****     USB_FS_device,
 115:mculib/src/periph/periph.h ****     USB_HS_device,
 116:mculib/src/periph/periph.h ****     USB_FS_IN,
 117:mculib/src/periph/periph.h ****     USB_HS_IN,
 118:mculib/src/periph/periph.h ****     USB_FS_OUT,
 119:mculib/src/periph/periph.h ****     USB_HS_OUT,
 120:mculib/src/periph/periph.h **** #endif
 121:mculib/src/periph/periph.h **** 
 122:mculib/src/periph/periph.h **** #if defined(STM32F1)
 123:mculib/src/periph/periph.h ****     EXTI,
 124:mculib/src/periph/periph.h **** #endif
 125:mculib/src/periph/periph.h **** 
 126:mculib/src/periph/periph.h **** #if defined(TEST)
 127:mculib/src/periph/periph.h ****     TEST_RCC, TEST_AFIO, TEST_DMA
 128:mculib/src/periph/periph.h **** #endif
 129:mculib/src/periph/periph.h **** };
 130:mculib/src/periph/periph.h **** 
 131:mculib/src/periph/periph.h **** template<class T>
 132:mculib/src/periph/periph.h **** auto& like_CMSIS (T& p)
 133:mculib/src/periph/periph.h **** {
 134:mculib/src/periph/periph.h ****    return *reinterpret_cast<typename T::CMSIS_type*>(&p);
 135:mculib/src/periph/periph.h **** }
 136:mculib/src/periph/periph.h **** 
 137:mculib/src/periph/periph.h **** template<class T>
 138:mculib/src/periph/periph.h **** volatile auto& registr (T& v)
 2087              		.loc 10 138 16
 2088              		.cfi_startproc
 2089              		@ args = 0, pretend = 0, frame = 8
 2090              		@ frame_needed = 1, uses_anonymous_args = 0
 2091 0000 80B5     		push	{r7, lr}
 2092              	.LCFI123:
 2093              		.cfi_def_cfa_offset 8
 2094              		.cfi_offset 7, -8
 2095              		.cfi_offset 14, -4
 2096 0002 82B0     		sub	sp, sp, #8
 2097              	.LCFI124:
 2098              		.cfi_def_cfa_offset 16
 2099 0004 00AF     		add	r7, sp, #0
 2100              	.LCFI125:
 2101              		.cfi_def_cfa_register 7
 2102 0006 7860     		str	r0, [r7, #4]
 139:mculib/src/periph/periph.h **** {
 140:mculib/src/periph/periph.h ****    return *reinterpret_cast<volatile uint32_t*>(&v);
ARM GAS  /tmp/ccOFgnnN.s 			page 63


 2103              		.loc 10 140 51
 2104 0008 7B68     		ldr	r3, [r7, #4]
 141:mculib/src/periph/periph.h **** }
 2105              		.loc 10 141 1
 2106 000a 1800     		movs	r0, r3
 2107 000c BD46     		mov	sp, r7
 2108 000e 02B0     		add	sp, sp, #8
 2109              		@ sp needed
 2110 0010 80BD     		pop	{r7, pc}
 2111              		.cfi_endproc
 2112              	.LFE2229:
 2114              		.section	.text._ZN3mcu3DMA21clear_interrupt_flagsENS0_7ChannelE,"ax",%progbits
 2115              		.align	1
 2116              		.global	_ZN3mcu3DMA21clear_interrupt_flagsENS0_7ChannelE
 2117              		.syntax unified
 2118              		.code	16
 2119              		.thumb_func
 2120              		.fpu softvfp
 2122              	_ZN3mcu3DMA21clear_interrupt_flagsENS0_7ChannelE:
 2123              	.LFB2228:
 2124              		.file 11 "mculib/src/periph/dma_f0.h"
   1:mculib/src/periph/dma_f0.h **** #pragma once
   2:mculib/src/periph/dma_f0.h **** 
   3:mculib/src/periph/dma_f0.h **** #include "bits_dma_f0.h"
   4:mculib/src/periph/dma_f0.h **** #include  <cstring>
   5:mculib/src/periph/dma_f0.h **** 
   6:mculib/src/periph/dma_f0.h **** namespace mcu {
   7:mculib/src/periph/dma_f0.h **** 
   8:mculib/src/periph/dma_f0.h **** class DMA
   9:mculib/src/periph/dma_f0.h **** {
  10:mculib/src/periph/dma_f0.h ****     volatile DMA_bits::ISR  ISR;  // DMA interrupt status register     offset: 0x00
  11:mculib/src/periph/dma_f0.h ****     volatile DMA_bits::IFCR IFCR; // DMA interrupt flag clear register offset: 0x04
  12:mculib/src/periph/dma_f0.h **** 
  13:mculib/src/periph/dma_f0.h **** public:
  14:mculib/src/periph/dma_f0.h ****     using CMSIS_type = DMA_TypeDef;
  15:mculib/src/periph/dma_f0.h ****     enum class Channel { _1 = 1, _2, _3, _4, _5, error };
  16:mculib/src/periph/dma_f0.h **** 
  17:mculib/src/periph/dma_f0.h ****     auto& like_CMSIS() { return *reinterpret_cast<CMSIS_type*>(this); }
  18:mculib/src/periph/dma_f0.h **** 
  19:mculib/src/periph/dma_f0.h ****     void clear_interrupt_flags         (Channel);
  20:mculib/src/periph/dma_f0.h ****     bool is_transfer_complete_interrupt(Channel);
  21:mculib/src/periph/dma_f0.h **** };
  22:mculib/src/periph/dma_f0.h **** 
  23:mculib/src/periph/dma_f0.h **** #if not defined(USE_MOCK_DMA)
  24:mculib/src/periph/dma_f0.h **** // template <Periph dma> std::enable_if_t<dma == Periph::DMA1, DMA&> make_reference() {return *rein
  25:mculib/src/periph/dma_f0.h **** template <Periph dma> std::enable_if_t<dma == Periph::DMA1, DMA&> make_reference() {return *new((vo
  26:mculib/src/periph/dma_f0.h **** #endif
  27:mculib/src/periph/dma_f0.h **** 
  28:mculib/src/periph/dma_f0.h **** 
  29:mculib/src/periph/dma_f0.h **** 
  30:mculib/src/periph/dma_f0.h **** 
  31:mculib/src/periph/dma_f0.h **** 
  32:mculib/src/periph/dma_f0.h **** 
  33:mculib/src/periph/dma_f0.h **** 
  34:mculib/src/periph/dma_f0.h **** 
  35:mculib/src/periph/dma_f0.h **** void DMA::clear_interrupt_flags(Channel v)
  36:mculib/src/periph/dma_f0.h **** {
ARM GAS  /tmp/ccOFgnnN.s 			page 64


 2125              		.loc 11 36 1
 2126              		.cfi_startproc
 2127              		@ args = 0, pretend = 0, frame = 8
 2128              		@ frame_needed = 1, uses_anonymous_args = 0
 2129 0000 90B5     		push	{r4, r7, lr}
 2130              	.LCFI126:
 2131              		.cfi_def_cfa_offset 12
 2132              		.cfi_offset 4, -12
 2133              		.cfi_offset 7, -8
 2134              		.cfi_offset 14, -4
 2135 0002 83B0     		sub	sp, sp, #12
 2136              	.LCFI127:
 2137              		.cfi_def_cfa_offset 24
 2138 0004 00AF     		add	r7, sp, #0
 2139              	.LCFI128:
 2140              		.cfi_def_cfa_register 7
 2141 0006 7860     		str	r0, [r7, #4]
 2142 0008 3960     		str	r1, [r7]
  37:mculib/src/periph/dma_f0.h ****     // -fno-strict-volatile-bitfields dosent work
  38:mculib/src/periph/dma_f0.h ****     // if      (v == Channel::_1) IFCR.CGIF1 = true;
  39:mculib/src/periph/dma_f0.h ****     // else if (v == Channel::_2) IFCR.CGIF2 = true;
  40:mculib/src/periph/dma_f0.h ****     // else if (v == Channel::_3) IFCR.CGIF3 = true;
  41:mculib/src/periph/dma_f0.h ****     // else if (v == Channel::_4) IFCR.CGIF4 = true;
  42:mculib/src/periph/dma_f0.h ****     // else if (v == Channel::_5) IFCR.CGIF5 = true;
  43:mculib/src/periph/dma_f0.h ****     registr(IFCR) = (1 << ((static_cast<uint8_t>(v) - 1)*4));
 2143              		.loc 11 43 29
 2144 000a 3B68     		ldr	r3, [r7]
 2145 000c DBB2     		uxtb	r3, r3
 2146              		.loc 11 43 53
 2147 000e 013B     		subs	r3, r3, #1
 2148              		.loc 11 43 57
 2149 0010 9B00     		lsls	r3, r3, #2
 2150              		.loc 11 43 24
 2151 0012 0122     		movs	r2, #1
 2152 0014 9A40     		lsls	r2, r2, r3
 2153 0016 1300     		movs	r3, r2
 2154 0018 1C00     		movs	r4, r3
 2155              		.loc 11 43 13
 2156 001a 7B68     		ldr	r3, [r7, #4]
 2157 001c 0433     		adds	r3, r3, #4
 2158              		.loc 11 43 17
 2159 001e 1800     		movs	r0, r3
 2160 0020 FFF7FEFF 		bl	_ZN3mcu7registrIVNS_8DMA_bits4IFCREEERVDaRT_
 2161 0024 0300     		movs	r3, r0
 2162              		.loc 11 43 19
 2163 0026 1C60     		str	r4, [r3]
  44:mculib/src/periph/dma_f0.h **** }
 2164              		.loc 11 44 1
 2165 0028 C046     		nop
 2166 002a BD46     		mov	sp, r7
 2167 002c 03B0     		add	sp, sp, #12
 2168              		@ sp needed
 2169 002e 90BD     		pop	{r4, r7, pc}
 2170              		.cfi_endproc
 2171              	.LFE2228:
 2173              		.section	.text._ZN3mcu7registrIVNS_8DMA_bits3ISREEERVDaRT_,"axG",%progbits,_ZN3mcu7registrIVNS_8DM
 2174              		.align	1
ARM GAS  /tmp/ccOFgnnN.s 			page 65


 2175              		.weak	_ZN3mcu7registrIVNS_8DMA_bits3ISREEERVDaRT_
 2176              		.syntax unified
 2177              		.code	16
 2178              		.thumb_func
 2179              		.fpu softvfp
 2181              	_ZN3mcu7registrIVNS_8DMA_bits3ISREEERVDaRT_:
 2182              	.LFB2231:
 138:mculib/src/periph/periph.h **** {
 2183              		.loc 10 138 16
 2184              		.cfi_startproc
 2185              		@ args = 0, pretend = 0, frame = 8
 2186              		@ frame_needed = 1, uses_anonymous_args = 0
 2187 0000 80B5     		push	{r7, lr}
 2188              	.LCFI129:
 2189              		.cfi_def_cfa_offset 8
 2190              		.cfi_offset 7, -8
 2191              		.cfi_offset 14, -4
 2192 0002 82B0     		sub	sp, sp, #8
 2193              	.LCFI130:
 2194              		.cfi_def_cfa_offset 16
 2195 0004 00AF     		add	r7, sp, #0
 2196              	.LCFI131:
 2197              		.cfi_def_cfa_register 7
 2198 0006 7860     		str	r0, [r7, #4]
 140:mculib/src/periph/periph.h **** }
 2199              		.loc 10 140 51
 2200 0008 7B68     		ldr	r3, [r7, #4]
 2201              		.loc 10 141 1
 2202 000a 1800     		movs	r0, r3
 2203 000c BD46     		mov	sp, r7
 2204 000e 02B0     		add	sp, sp, #8
 2205              		@ sp needed
 2206 0010 80BD     		pop	{r7, pc}
 2207              		.cfi_endproc
 2208              	.LFE2231:
 2210              		.section	.text._ZN3mcu3DMA30is_transfer_complete_interruptENS0_7ChannelE,"ax",%progbits
 2211              		.align	1
 2212              		.global	_ZN3mcu3DMA30is_transfer_complete_interruptENS0_7ChannelE
 2213              		.syntax unified
 2214              		.code	16
 2215              		.thumb_func
 2216              		.fpu softvfp
 2218              	_ZN3mcu3DMA30is_transfer_complete_interruptENS0_7ChannelE:
 2219              	.LFB2230:
  45:mculib/src/periph/dma_f0.h **** 
  46:mculib/src/periph/dma_f0.h **** bool DMA::is_transfer_complete_interrupt(Channel v)
  47:mculib/src/periph/dma_f0.h **** {
 2220              		.loc 11 47 1
 2221              		.cfi_startproc
 2222              		@ args = 0, pretend = 0, frame = 8
 2223              		@ frame_needed = 1, uses_anonymous_args = 0
 2224 0000 80B5     		push	{r7, lr}
 2225              	.LCFI132:
 2226              		.cfi_def_cfa_offset 8
 2227              		.cfi_offset 7, -8
 2228              		.cfi_offset 14, -4
 2229 0002 82B0     		sub	sp, sp, #8
ARM GAS  /tmp/ccOFgnnN.s 			page 66


 2230              	.LCFI133:
 2231              		.cfi_def_cfa_offset 16
 2232 0004 00AF     		add	r7, sp, #0
 2233              	.LCFI134:
 2234              		.cfi_def_cfa_register 7
 2235 0006 7860     		str	r0, [r7, #4]
 2236 0008 3960     		str	r1, [r7]
  48:mculib/src/periph/dma_f0.h ****     // -fno-strict-volatile-bitfields dosent work
  49:mculib/src/periph/dma_f0.h ****     // if      (v == Channel::_1) return ISR.TCIF1;
  50:mculib/src/periph/dma_f0.h ****     // else if (v == Channel::_2) return ISR.TCIF2;
  51:mculib/src/periph/dma_f0.h ****     // else if (v == Channel::_3) return ISR.TCIF3;
  52:mculib/src/periph/dma_f0.h ****     // else if (v == Channel::_4) return ISR.TCIF4;
  53:mculib/src/periph/dma_f0.h ****     // else if (v == Channel::_5) return ISR.TCIF5;
  54:mculib/src/periph/dma_f0.h ****     // else return false;
  55:mculib/src/periph/dma_f0.h ****     return registr(ISR) & (1 << (1 + (static_cast<uint8_t>(v) - 1)*4));
 2237              		.loc 11 55 20
 2238 000a 7B68     		ldr	r3, [r7, #4]
 2239              		.loc 11 55 23
 2240 000c 1800     		movs	r0, r3
 2241 000e FFF7FEFF 		bl	_ZN3mcu7registrIVNS_8DMA_bits3ISREEERVDaRT_
 2242 0012 0300     		movs	r3, r0
 2243              		.loc 11 55 19
 2244 0014 1B68     		ldr	r3, [r3]
 2245              		.loc 11 55 39
 2246 0016 3A68     		ldr	r2, [r7]
 2247 0018 D2B2     		uxtb	r2, r2
 2248              		.loc 11 55 63
 2249 001a 013A     		subs	r2, r2, #1
 2250              		.loc 11 55 67
 2251 001c 9200     		lsls	r2, r2, #2
 2252              		.loc 11 55 36
 2253 001e 0132     		adds	r2, r2, #1
 2254              		.loc 11 55 30
 2255 0020 0121     		movs	r1, #1
 2256 0022 9140     		lsls	r1, r1, r2
 2257 0024 0A00     		movs	r2, r1
 2258              		.loc 11 55 25
 2259 0026 1340     		ands	r3, r2
 2260              		.loc 11 55 70
 2261 0028 5A1E     		subs	r2, r3, #1
 2262 002a 9341     		sbcs	r3, r3, r2
 2263 002c DBB2     		uxtb	r3, r3
  56:mculib/src/periph/dma_f0.h **** }
 2264              		.loc 11 56 1
 2265 002e 1800     		movs	r0, r3
 2266 0030 BD46     		mov	sp, r7
 2267 0032 02B0     		add	sp, sp, #8
 2268              		@ sp needed
 2269 0034 80BD     		pop	{r7, pc}
 2270              		.cfi_endproc
 2271              	.LFE2230:
 2273              		.section	.text._ZN3mcu10DMA_stream6enableEv,"axG",%progbits,_ZN3mcu10DMA_stream6enableEv,comdat
 2274              		.align	1
 2275              		.weak	_ZN3mcu10DMA_stream6enableEv
 2276              		.syntax unified
 2277              		.code	16
 2278              		.thumb_func
ARM GAS  /tmp/ccOFgnnN.s 			page 67


 2279              		.fpu softvfp
 2281              	_ZN3mcu10DMA_stream6enableEv:
 2282              	.LFB2233:
 2283              		.file 12 "mculib/src/periph/dma_stream_f0_f1.h"
   1:mculib/src/periph/dma_stream_f0_f1.h **** #pragma once
   2:mculib/src/periph/dma_stream_f0_f1.h **** 
   3:mculib/src/periph/dma_stream_f0_f1.h **** #include "bits_dma_stream_f0_f1.h"
   4:mculib/src/periph/dma_stream_f0_f1.h **** #include "periph_dma.h"
   5:mculib/src/periph/dma_stream_f0_f1.h **** 
   6:mculib/src/periph/dma_stream_f0_f1.h **** namespace mcu {
   7:mculib/src/periph/dma_stream_f0_f1.h **** 
   8:mculib/src/periph/dma_stream_f0_f1.h **** class DMA_stream {
   9:mculib/src/periph/dma_stream_f0_f1.h **** protected:
  10:mculib/src/periph/dma_stream_f0_f1.h ****    volatile DMA_bits::CCR CCR;   // DMA channel x configuration register      offset: 0x08 + 0d20 
  11:mculib/src/periph/dma_stream_f0_f1.h ****    volatile uint32_t      CNDTR; // DMA channel x number of data register     offset: 0x0C + 0d20 
  12:mculib/src/periph/dma_stream_f0_f1.h ****    volatile uint32_t      CPAR;  // DMA channel x peripheral address register offset: 0x10 + 0d20 
  13:mculib/src/periph/dma_stream_f0_f1.h ****    volatile uint32_t      CMAR;  // DMA channel x memory address register     offset: 0x14 + 0d20 
  14:mculib/src/periph/dma_stream_f0_f1.h **** 
  15:mculib/src/periph/dma_stream_f0_f1.h **** public:
  16:mculib/src/periph/dma_stream_f0_f1.h ****    using CMSIS_type = DMA_Channel_TypeDef;
  17:mculib/src/periph/dma_stream_f0_f1.h ****    using DataSize   = DMA_bits::CCR::DataSize;
  18:mculib/src/periph/dma_stream_f0_f1.h ****    using Priority   = DMA_bits::CCR::Priority;
  19:mculib/src/periph/dma_stream_f0_f1.h ****    using Direction  = DMA_bits::CCR::Direction;
  20:mculib/src/periph/dma_stream_f0_f1.h ****    using Channel    = DMA::Channel;
  21:mculib/src/periph/dma_stream_f0_f1.h **** 
  22:mculib/src/periph/dma_stream_f0_f1.h ****    auto& like_CMSIS() { return *reinterpret_cast<CMSIS_type*>(this); }
  23:mculib/src/periph/dma_stream_f0_f1.h **** 
  24:mculib/src/periph/dma_stream_f0_f1.h ****    DMA_stream& enable       (){CCR.EN = true; while(not CCR.EN){} return *this;}
 2284              		.loc 12 24 16
 2285              		.cfi_startproc
 2286              		@ args = 0, pretend = 0, frame = 8
 2287              		@ frame_needed = 1, uses_anonymous_args = 0
 2288 0000 80B5     		push	{r7, lr}
 2289              	.LCFI135:
 2290              		.cfi_def_cfa_offset 8
 2291              		.cfi_offset 7, -8
 2292              		.cfi_offset 14, -4
 2293 0002 82B0     		sub	sp, sp, #8
 2294              	.LCFI136:
 2295              		.cfi_def_cfa_offset 16
 2296 0004 00AF     		add	r7, sp, #0
 2297              	.LCFI137:
 2298              		.cfi_def_cfa_register 7
 2299 0006 7860     		str	r0, [r7, #4]
 2300              		.loc 12 24 39
 2301 0008 7B68     		ldr	r3, [r7, #4]
 2302 000a 1A68     		ldr	r2, [r3]
 2303 000c 0121     		movs	r1, #1
 2304 000e 0A43     		orrs	r2, r1
 2305 0010 1A60     		str	r2, [r3]
 2306              	.L114:
 2307              		.loc 12 24 61 discriminator 1
 2308 0012 7B68     		ldr	r3, [r7, #4]
 2309 0014 1B68     		ldr	r3, [r3]
 2310 0016 DB07     		lsls	r3, r3, #31
 2311 0018 DB0F     		lsrs	r3, r3, #31
 2312 001a DBB2     		uxtb	r3, r3
ARM GAS  /tmp/ccOFgnnN.s 			page 68


 2313              		.loc 12 24 53 discriminator 1
 2314 001c 0122     		movs	r2, #1
 2315 001e 5340     		eors	r3, r2
 2316 0020 DBB2     		uxtb	r3, r3
 2317 0022 002B     		cmp	r3, #0
 2318 0024 00D0     		beq	.L113
 2319              		.loc 12 24 47
 2320 0026 F4E7     		b	.L114
 2321              	.L113:
 2322              		.loc 12 24 75 discriminator 2
 2323 0028 7B68     		ldr	r3, [r7, #4]
 2324              		.loc 12 24 80 discriminator 2
 2325 002a 1800     		movs	r0, r3
 2326 002c BD46     		mov	sp, r7
 2327 002e 02B0     		add	sp, sp, #8
 2328              		@ sp needed
 2329 0030 80BD     		pop	{r7, pc}
 2330              		.cfi_endproc
 2331              	.LFE2233:
 2333              		.section	.text._ZN3mcu10DMA_stream7disableEv,"axG",%progbits,_ZN3mcu10DMA_stream7disableEv,comdat
 2334              		.align	1
 2335              		.weak	_ZN3mcu10DMA_stream7disableEv
 2336              		.syntax unified
 2337              		.code	16
 2338              		.thumb_func
 2339              		.fpu softvfp
 2341              	_ZN3mcu10DMA_stream7disableEv:
 2342              	.LFB2234:
  25:mculib/src/periph/dma_stream_f0_f1.h ****    DMA_stream& disable      (){CCR.EN = false;  return *this;}
 2343              		.loc 12 25 16
 2344              		.cfi_startproc
 2345              		@ args = 0, pretend = 0, frame = 8
 2346              		@ frame_needed = 1, uses_anonymous_args = 0
 2347 0000 80B5     		push	{r7, lr}
 2348              	.LCFI138:
 2349              		.cfi_def_cfa_offset 8
 2350              		.cfi_offset 7, -8
 2351              		.cfi_offset 14, -4
 2352 0002 82B0     		sub	sp, sp, #8
 2353              	.LCFI139:
 2354              		.cfi_def_cfa_offset 16
 2355 0004 00AF     		add	r7, sp, #0
 2356              	.LCFI140:
 2357              		.cfi_def_cfa_register 7
 2358 0006 7860     		str	r0, [r7, #4]
 2359              		.loc 12 25 39
 2360 0008 7B68     		ldr	r3, [r7, #4]
 2361 000a 1A68     		ldr	r2, [r3]
 2362 000c 0121     		movs	r1, #1
 2363 000e 8A43     		bics	r2, r1
 2364 0010 1A60     		str	r2, [r3]
 2365              		.loc 12 25 57
 2366 0012 7B68     		ldr	r3, [r7, #4]
 2367              		.loc 12 25 62
 2368 0014 1800     		movs	r0, r3
 2369 0016 BD46     		mov	sp, r7
 2370 0018 02B0     		add	sp, sp, #8
ARM GAS  /tmp/ccOFgnnN.s 			page 69


 2371              		@ sp needed
 2372 001a 80BD     		pop	{r7, pc}
 2373              		.cfi_endproc
 2374              	.LFE2234:
 2376              		.section	.text._ZN3mcu10DMA_stream10inc_memoryEv,"axG",%progbits,_ZN3mcu10DMA_stream10inc_memoryEv
 2377              		.align	1
 2378              		.weak	_ZN3mcu10DMA_stream10inc_memoryEv
 2379              		.syntax unified
 2380              		.code	16
 2381              		.thumb_func
 2382              		.fpu softvfp
 2384              	_ZN3mcu10DMA_stream10inc_memoryEv:
 2385              	.LFB2236:
  26:mculib/src/periph/dma_stream_f0_f1.h ****    bool        is_disable   (){return (not CCR.EN);}
  27:mculib/src/periph/dma_stream_f0_f1.h ****    DMA_stream& inc_memory   (){CCR.MINC = true; return *this;}
 2386              		.loc 12 27 16
 2387              		.cfi_startproc
 2388              		@ args = 0, pretend = 0, frame = 8
 2389              		@ frame_needed = 1, uses_anonymous_args = 0
 2390 0000 80B5     		push	{r7, lr}
 2391              	.LCFI141:
 2392              		.cfi_def_cfa_offset 8
 2393              		.cfi_offset 7, -8
 2394              		.cfi_offset 14, -4
 2395 0002 82B0     		sub	sp, sp, #8
 2396              	.LCFI142:
 2397              		.cfi_def_cfa_offset 16
 2398 0004 00AF     		add	r7, sp, #0
 2399              	.LCFI143:
 2400              		.cfi_def_cfa_register 7
 2401 0006 7860     		str	r0, [r7, #4]
 2402              		.loc 12 27 41
 2403 0008 7B68     		ldr	r3, [r7, #4]
 2404 000a 1A68     		ldr	r2, [r3]
 2405 000c 8021     		movs	r1, #128
 2406 000e 0A43     		orrs	r2, r1
 2407 0010 1A60     		str	r2, [r3]
 2408              		.loc 12 27 57
 2409 0012 7B68     		ldr	r3, [r7, #4]
 2410              		.loc 12 27 62
 2411 0014 1800     		movs	r0, r3
 2412 0016 BD46     		mov	sp, r7
 2413 0018 02B0     		add	sp, sp, #8
 2414              		@ sp needed
 2415 001a 80BD     		pop	{r7, pc}
 2416              		.cfi_endproc
 2417              	.LFE2236:
 2419              		.section	.text._ZN3mcu10DMA_stream13circular_modeEv,"axG",%progbits,_ZN3mcu10DMA_stream13circular_
 2420              		.align	1
 2421              		.weak	_ZN3mcu10DMA_stream13circular_modeEv
 2422              		.syntax unified
 2423              		.code	16
 2424              		.thumb_func
 2425              		.fpu softvfp
 2427              	_ZN3mcu10DMA_stream13circular_modeEv:
 2428              	.LFB2238:
  28:mculib/src/periph/dma_stream_f0_f1.h ****    DMA_stream& inc_periph   (){CCR.PINC = true; return *this;}
ARM GAS  /tmp/ccOFgnnN.s 			page 70


  29:mculib/src/periph/dma_stream_f0_f1.h ****    DMA_stream& circular_mode(){CCR.CIRC = true; return *this;}
 2429              		.loc 12 29 16
 2430              		.cfi_startproc
 2431              		@ args = 0, pretend = 0, frame = 8
 2432              		@ frame_needed = 1, uses_anonymous_args = 0
 2433 0000 80B5     		push	{r7, lr}
 2434              	.LCFI144:
 2435              		.cfi_def_cfa_offset 8
 2436              		.cfi_offset 7, -8
 2437              		.cfi_offset 14, -4
 2438 0002 82B0     		sub	sp, sp, #8
 2439              	.LCFI145:
 2440              		.cfi_def_cfa_offset 16
 2441 0004 00AF     		add	r7, sp, #0
 2442              	.LCFI146:
 2443              		.cfi_def_cfa_register 7
 2444 0006 7860     		str	r0, [r7, #4]
 2445              		.loc 12 29 41
 2446 0008 7B68     		ldr	r3, [r7, #4]
 2447 000a 1A68     		ldr	r2, [r3]
 2448 000c 2021     		movs	r1, #32
 2449 000e 0A43     		orrs	r2, r1
 2450 0010 1A60     		str	r2, [r3]
 2451              		.loc 12 29 57
 2452 0012 7B68     		ldr	r3, [r7, #4]
 2453              		.loc 12 29 62
 2454 0014 1800     		movs	r0, r3
 2455 0016 BD46     		mov	sp, r7
 2456 0018 02B0     		add	sp, sp, #8
 2457              		@ sp needed
 2458 001a 80BD     		pop	{r7, pc}
 2459              		.cfi_endproc
 2460              	.LFE2238:
 2462              		.section	.text._ZN3mcu10DMA_stream14set_memory_adrEm,"axG",%progbits,_ZN3mcu10DMA_stream14set_memo
 2463              		.align	1
 2464              		.weak	_ZN3mcu10DMA_stream14set_memory_adrEm
 2465              		.syntax unified
 2466              		.code	16
 2467              		.thumb_func
 2468              		.fpu softvfp
 2470              	_ZN3mcu10DMA_stream14set_memory_adrEm:
 2471              	.LFB2239:
  30:mculib/src/periph/dma_stream_f0_f1.h **** 
  31:mculib/src/periph/dma_stream_f0_f1.h ****    DMA_stream& set_memory_adr      (uint32_t v){CMAR  = v; return *this;}
 2472              		.loc 12 31 16
 2473              		.cfi_startproc
 2474              		@ args = 0, pretend = 0, frame = 8
 2475              		@ frame_needed = 1, uses_anonymous_args = 0
 2476 0000 80B5     		push	{r7, lr}
 2477              	.LCFI147:
 2478              		.cfi_def_cfa_offset 8
 2479              		.cfi_offset 7, -8
 2480              		.cfi_offset 14, -4
 2481 0002 82B0     		sub	sp, sp, #8
 2482              	.LCFI148:
 2483              		.cfi_def_cfa_offset 16
 2484 0004 00AF     		add	r7, sp, #0
ARM GAS  /tmp/ccOFgnnN.s 			page 71


 2485              	.LCFI149:
 2486              		.cfi_def_cfa_register 7
 2487 0006 7860     		str	r0, [r7, #4]
 2488 0008 3960     		str	r1, [r7]
 2489              		.loc 12 31 55
 2490 000a 7B68     		ldr	r3, [r7, #4]
 2491 000c 3A68     		ldr	r2, [r7]
 2492 000e DA60     		str	r2, [r3, #12]
 2493              		.loc 12 31 68
 2494 0010 7B68     		ldr	r3, [r7, #4]
 2495              		.loc 12 31 73
 2496 0012 1800     		movs	r0, r3
 2497 0014 BD46     		mov	sp, r7
 2498 0016 02B0     		add	sp, sp, #8
 2499              		@ sp needed
 2500 0018 80BD     		pop	{r7, pc}
 2501              		.cfi_endproc
 2502              	.LFE2239:
 2504              		.section	.text._ZN3mcu10DMA_stream14set_periph_adrEm,"axG",%progbits,_ZN3mcu10DMA_stream14set_peri
 2505              		.align	1
 2506              		.weak	_ZN3mcu10DMA_stream14set_periph_adrEm
 2507              		.syntax unified
 2508              		.code	16
 2509              		.thumb_func
 2510              		.fpu softvfp
 2512              	_ZN3mcu10DMA_stream14set_periph_adrEm:
 2513              	.LFB2240:
  32:mculib/src/periph/dma_stream_f0_f1.h ****    DMA_stream& set_periph_adr      (uint32_t v){CPAR  = v; return *this;}
 2514              		.loc 12 32 16
 2515              		.cfi_startproc
 2516              		@ args = 0, pretend = 0, frame = 8
 2517              		@ frame_needed = 1, uses_anonymous_args = 0
 2518 0000 80B5     		push	{r7, lr}
 2519              	.LCFI150:
 2520              		.cfi_def_cfa_offset 8
 2521              		.cfi_offset 7, -8
 2522              		.cfi_offset 14, -4
 2523 0002 82B0     		sub	sp, sp, #8
 2524              	.LCFI151:
 2525              		.cfi_def_cfa_offset 16
 2526 0004 00AF     		add	r7, sp, #0
 2527              	.LCFI152:
 2528              		.cfi_def_cfa_register 7
 2529 0006 7860     		str	r0, [r7, #4]
 2530 0008 3960     		str	r1, [r7]
 2531              		.loc 12 32 55
 2532 000a 7B68     		ldr	r3, [r7, #4]
 2533 000c 3A68     		ldr	r2, [r7]
 2534 000e 9A60     		str	r2, [r3, #8]
 2535              		.loc 12 32 68
 2536 0010 7B68     		ldr	r3, [r7, #4]
 2537              		.loc 12 32 73
 2538 0012 1800     		movs	r0, r3
 2539 0014 BD46     		mov	sp, r7
 2540 0016 02B0     		add	sp, sp, #8
 2541              		@ sp needed
 2542 0018 80BD     		pop	{r7, pc}
ARM GAS  /tmp/ccOFgnnN.s 			page 72


 2543              		.cfi_endproc
 2544              	.LFE2240:
 2546              		.section	.text._ZN3mcu10DMA_stream20set_qty_transactionsEt,"axG",%progbits,_ZN3mcu10DMA_stream20se
 2547              		.align	1
 2548              		.weak	_ZN3mcu10DMA_stream20set_qty_transactionsEt
 2549              		.syntax unified
 2550              		.code	16
 2551              		.thumb_func
 2552              		.fpu softvfp
 2554              	_ZN3mcu10DMA_stream20set_qty_transactionsEt:
 2555              	.LFB2241:
  33:mculib/src/periph/dma_stream_f0_f1.h ****    DMA_stream& set_qty_transactions(uint16_t v){CNDTR = v; return *this;}
 2556              		.loc 12 33 16
 2557              		.cfi_startproc
 2558              		@ args = 0, pretend = 0, frame = 8
 2559              		@ frame_needed = 1, uses_anonymous_args = 0
 2560 0000 80B5     		push	{r7, lr}
 2561              	.LCFI153:
 2562              		.cfi_def_cfa_offset 8
 2563              		.cfi_offset 7, -8
 2564              		.cfi_offset 14, -4
 2565 0002 82B0     		sub	sp, sp, #8
 2566              	.LCFI154:
 2567              		.cfi_def_cfa_offset 16
 2568 0004 00AF     		add	r7, sp, #0
 2569              	.LCFI155:
 2570              		.cfi_def_cfa_register 7
 2571 0006 7860     		str	r0, [r7, #4]
 2572 0008 0A00     		movs	r2, r1
 2573 000a BB1C     		adds	r3, r7, #2
 2574 000c 1A80     		strh	r2, [r3]
 2575              		.loc 12 33 57
 2576 000e BB1C     		adds	r3, r7, #2
 2577 0010 1A88     		ldrh	r2, [r3]
 2578              		.loc 12 33 55
 2579 0012 7B68     		ldr	r3, [r7, #4]
 2580 0014 5A60     		str	r2, [r3, #4]
 2581              		.loc 12 33 68
 2582 0016 7B68     		ldr	r3, [r7, #4]
 2583              		.loc 12 33 73
 2584 0018 1800     		movs	r0, r3
 2585 001a BD46     		mov	sp, r7
 2586 001c 02B0     		add	sp, sp, #8
 2587              		@ sp needed
 2588 001e 80BD     		pop	{r7, pc}
 2589              		.cfi_endproc
 2590              	.LFE2241:
 2592              		.section	.text._ZN3mcu10DMA_stream3setENS_8DMA_bits3CCR9DirectionE,"axG",%progbits,_ZN3mcu10DMA_st
 2593              		.align	1
 2594              		.weak	_ZN3mcu10DMA_stream3setENS_8DMA_bits3CCR9DirectionE
 2595              		.syntax unified
 2596              		.code	16
 2597              		.thumb_func
 2598              		.fpu softvfp
 2600              	_ZN3mcu10DMA_stream3setENS_8DMA_bits3CCR9DirectionE:
 2601              	.LFB2242:
  34:mculib/src/periph/dma_stream_f0_f1.h **** 
ARM GAS  /tmp/ccOFgnnN.s 			page 73


  35:mculib/src/periph/dma_stream_f0_f1.h ****    DMA_stream& set       (Direction v) {CCR.DIR   = v; return *this;}
 2602              		.loc 12 35 16
 2603              		.cfi_startproc
 2604              		@ args = 0, pretend = 0, frame = 8
 2605              		@ frame_needed = 1, uses_anonymous_args = 0
 2606 0000 80B5     		push	{r7, lr}
 2607              	.LCFI156:
 2608              		.cfi_def_cfa_offset 8
 2609              		.cfi_offset 7, -8
 2610              		.cfi_offset 14, -4
 2611 0002 82B0     		sub	sp, sp, #8
 2612              	.LCFI157:
 2613              		.cfi_def_cfa_offset 16
 2614 0004 00AF     		add	r7, sp, #0
 2615              	.LCFI158:
 2616              		.cfi_def_cfa_register 7
 2617 0006 7860     		str	r0, [r7, #4]
 2618 0008 0A00     		movs	r2, r1
 2619 000a FB1C     		adds	r3, r7, #3
 2620 000c 1A70     		strb	r2, [r3]
 2621              		.loc 12 35 53
 2622 000e FB1C     		adds	r3, r7, #3
 2623 0010 1B78     		ldrb	r3, [r3]
 2624 0012 0122     		movs	r2, #1
 2625 0014 1340     		ands	r3, r2
 2626 0016 DAB2     		uxtb	r2, r3
 2627              		.loc 12 35 51
 2628 0018 7B68     		ldr	r3, [r7, #4]
 2629 001a 0121     		movs	r1, #1
 2630 001c 0A40     		ands	r2, r1
 2631 001e 1201     		lsls	r2, r2, #4
 2632 0020 1968     		ldr	r1, [r3]
 2633 0022 1020     		movs	r0, #16
 2634 0024 8143     		bics	r1, r0
 2635 0026 0A43     		orrs	r2, r1
 2636 0028 1A60     		str	r2, [r3]
 2637              		.loc 12 35 64
 2638 002a 7B68     		ldr	r3, [r7, #4]
 2639              		.loc 12 35 69
 2640 002c 1800     		movs	r0, r3
 2641 002e BD46     		mov	sp, r7
 2642 0030 02B0     		add	sp, sp, #8
 2643              		@ sp needed
 2644 0032 80BD     		pop	{r7, pc}
 2645              		.cfi_endproc
 2646              	.LFE2242:
 2648              		.section	.text._ZN3mcu10DMA_stream11size_memoryENS_8DMA_bits3CCR8DataSizeE,"axG",%progbits,_ZN3mcu
 2649              		.align	1
 2650              		.weak	_ZN3mcu10DMA_stream11size_memoryENS_8DMA_bits3CCR8DataSizeE
 2651              		.syntax unified
 2652              		.code	16
 2653              		.thumb_func
 2654              		.fpu softvfp
 2656              	_ZN3mcu10DMA_stream11size_memoryENS_8DMA_bits3CCR8DataSizeE:
 2657              	.LFB2243:
  36:mculib/src/periph/dma_stream_f0_f1.h ****    DMA_stream& size_memory(DataSize v) {CCR.MSIZE = v; return *this;}
 2658              		.loc 12 36 16
ARM GAS  /tmp/ccOFgnnN.s 			page 74


 2659              		.cfi_startproc
 2660              		@ args = 0, pretend = 0, frame = 8
 2661              		@ frame_needed = 1, uses_anonymous_args = 0
 2662 0000 80B5     		push	{r7, lr}
 2663              	.LCFI159:
 2664              		.cfi_def_cfa_offset 8
 2665              		.cfi_offset 7, -8
 2666              		.cfi_offset 14, -4
 2667 0002 82B0     		sub	sp, sp, #8
 2668              	.LCFI160:
 2669              		.cfi_def_cfa_offset 16
 2670 0004 00AF     		add	r7, sp, #0
 2671              	.LCFI161:
 2672              		.cfi_def_cfa_register 7
 2673 0006 7860     		str	r0, [r7, #4]
 2674 0008 0A00     		movs	r2, r1
 2675 000a FB1C     		adds	r3, r7, #3
 2676 000c 1A70     		strb	r2, [r3]
 2677              		.loc 12 36 53
 2678 000e FB1C     		adds	r3, r7, #3
 2679 0010 1B78     		ldrb	r3, [r3]
 2680 0012 0322     		movs	r2, #3
 2681 0014 1340     		ands	r3, r2
 2682 0016 DAB2     		uxtb	r2, r3
 2683              		.loc 12 36 51
 2684 0018 7B68     		ldr	r3, [r7, #4]
 2685 001a 0321     		movs	r1, #3
 2686 001c 0A40     		ands	r2, r1
 2687 001e 9202     		lsls	r2, r2, #10
 2688 0020 1968     		ldr	r1, [r3]
 2689 0022 0448     		ldr	r0, .L132
 2690 0024 0140     		ands	r1, r0
 2691 0026 0A43     		orrs	r2, r1
 2692 0028 1A60     		str	r2, [r3]
 2693              		.loc 12 36 64
 2694 002a 7B68     		ldr	r3, [r7, #4]
 2695              		.loc 12 36 69
 2696 002c 1800     		movs	r0, r3
 2697 002e BD46     		mov	sp, r7
 2698 0030 02B0     		add	sp, sp, #8
 2699              		@ sp needed
 2700 0032 80BD     		pop	{r7, pc}
 2701              	.L133:
 2702              		.align	2
 2703              	.L132:
 2704 0034 FFF3FFFF 		.word	-3073
 2705              		.cfi_endproc
 2706              	.LFE2243:
 2708              		.section	.text._ZN3mcu10DMA_stream11size_periphENS_8DMA_bits3CCR8DataSizeE,"axG",%progbits,_ZN3mcu
 2709              		.align	1
 2710              		.weak	_ZN3mcu10DMA_stream11size_periphENS_8DMA_bits3CCR8DataSizeE
 2711              		.syntax unified
 2712              		.code	16
 2713              		.thumb_func
 2714              		.fpu softvfp
 2716              	_ZN3mcu10DMA_stream11size_periphENS_8DMA_bits3CCR8DataSizeE:
 2717              	.LFB2244:
ARM GAS  /tmp/ccOFgnnN.s 			page 75


  37:mculib/src/periph/dma_stream_f0_f1.h ****    DMA_stream& size_periph(DataSize v) {CCR.PSIZE = v; return *this;}
 2718              		.loc 12 37 16
 2719              		.cfi_startproc
 2720              		@ args = 0, pretend = 0, frame = 8
 2721              		@ frame_needed = 1, uses_anonymous_args = 0
 2722 0000 80B5     		push	{r7, lr}
 2723              	.LCFI162:
 2724              		.cfi_def_cfa_offset 8
 2725              		.cfi_offset 7, -8
 2726              		.cfi_offset 14, -4
 2727 0002 82B0     		sub	sp, sp, #8
 2728              	.LCFI163:
 2729              		.cfi_def_cfa_offset 16
 2730 0004 00AF     		add	r7, sp, #0
 2731              	.LCFI164:
 2732              		.cfi_def_cfa_register 7
 2733 0006 7860     		str	r0, [r7, #4]
 2734 0008 0A00     		movs	r2, r1
 2735 000a FB1C     		adds	r3, r7, #3
 2736 000c 1A70     		strb	r2, [r3]
 2737              		.loc 12 37 53
 2738 000e FB1C     		adds	r3, r7, #3
 2739 0010 1B78     		ldrb	r3, [r3]
 2740 0012 0322     		movs	r2, #3
 2741 0014 1340     		ands	r3, r2
 2742 0016 DAB2     		uxtb	r2, r3
 2743              		.loc 12 37 51
 2744 0018 7B68     		ldr	r3, [r7, #4]
 2745 001a 0321     		movs	r1, #3
 2746 001c 0A40     		ands	r2, r1
 2747 001e 1202     		lsls	r2, r2, #8
 2748 0020 1968     		ldr	r1, [r3]
 2749 0022 0448     		ldr	r0, .L136
 2750 0024 0140     		ands	r1, r0
 2751 0026 0A43     		orrs	r2, r1
 2752 0028 1A60     		str	r2, [r3]
 2753              		.loc 12 37 64
 2754 002a 7B68     		ldr	r3, [r7, #4]
 2755              		.loc 12 37 69
 2756 002c 1800     		movs	r0, r3
 2757 002e BD46     		mov	sp, r7
 2758 0030 02B0     		add	sp, sp, #8
 2759              		@ sp needed
 2760 0032 80BD     		pop	{r7, pc}
 2761              	.L137:
 2762              		.align	2
 2763              	.L136:
 2764 0034 FFFCFFFF 		.word	-769
 2765              		.cfi_endproc
 2766              	.LFE2244:
 2768              		.section	.text._ZN3mcu10DMA_stream34enable_transfer_complete_interruptEv,"axG",%progbits,_ZN3mcu10
 2769              		.align	1
 2770              		.weak	_ZN3mcu10DMA_stream34enable_transfer_complete_interruptEv
 2771              		.syntax unified
 2772              		.code	16
 2773              		.thumb_func
 2774              		.fpu softvfp
ARM GAS  /tmp/ccOFgnnN.s 			page 76


 2776              	_ZN3mcu10DMA_stream34enable_transfer_complete_interruptEv:
 2777              	.LFB2245:
  38:mculib/src/periph/dma_stream_f0_f1.h **** 
  39:mculib/src/periph/dma_stream_f0_f1.h ****    DMA_stream& enable_transfer_complete_interrupt(){CCR.TCIE = true; return *this;}
 2778              		.loc 12 39 16
 2779              		.cfi_startproc
 2780              		@ args = 0, pretend = 0, frame = 8
 2781              		@ frame_needed = 1, uses_anonymous_args = 0
 2782 0000 80B5     		push	{r7, lr}
 2783              	.LCFI165:
 2784              		.cfi_def_cfa_offset 8
 2785              		.cfi_offset 7, -8
 2786              		.cfi_offset 14, -4
 2787 0002 82B0     		sub	sp, sp, #8
 2788              	.LCFI166:
 2789              		.cfi_def_cfa_offset 16
 2790 0004 00AF     		add	r7, sp, #0
 2791              	.LCFI167:
 2792              		.cfi_def_cfa_register 7
 2793 0006 7860     		str	r0, [r7, #4]
 2794              		.loc 12 39 62
 2795 0008 7B68     		ldr	r3, [r7, #4]
 2796 000a 1A68     		ldr	r2, [r3]
 2797 000c 0221     		movs	r1, #2
 2798 000e 0A43     		orrs	r2, r1
 2799 0010 1A60     		str	r2, [r3]
 2800              		.loc 12 39 78
 2801 0012 7B68     		ldr	r3, [r7, #4]
 2802              		.loc 12 39 83
 2803 0014 1800     		movs	r0, r3
 2804 0016 BD46     		mov	sp, r7
 2805 0018 02B0     		add	sp, sp, #8
 2806              		@ sp needed
 2807 001a 80BD     		pop	{r7, pc}
 2808              		.cfi_endproc
 2809              	.LFE2245:
 2811              		.section	.text._ZN3mcu10DMA_stream21qty_transactions_leftEv,"axG",%progbits,_ZN3mcu10DMA_stream21q
 2812              		.align	1
 2813              		.weak	_ZN3mcu10DMA_stream21qty_transactions_leftEv
 2814              		.syntax unified
 2815              		.code	16
 2816              		.thumb_func
 2817              		.fpu softvfp
 2819              	_ZN3mcu10DMA_stream21qty_transactions_leftEv:
 2820              	.LFB2246:
  40:mculib/src/periph/dma_stream_f0_f1.h **** 
  41:mculib/src/periph/dma_stream_f0_f1.h ****    uint16_t qty_transactions_left(){return CNDTR;}
 2821              		.loc 12 41 13
 2822              		.cfi_startproc
 2823              		@ args = 0, pretend = 0, frame = 8
 2824              		@ frame_needed = 1, uses_anonymous_args = 0
 2825 0000 80B5     		push	{r7, lr}
 2826              	.LCFI168:
 2827              		.cfi_def_cfa_offset 8
 2828              		.cfi_offset 7, -8
 2829              		.cfi_offset 14, -4
 2830 0002 82B0     		sub	sp, sp, #8
ARM GAS  /tmp/ccOFgnnN.s 			page 77


 2831              	.LCFI169:
 2832              		.cfi_def_cfa_offset 16
 2833 0004 00AF     		add	r7, sp, #0
 2834              	.LCFI170:
 2835              		.cfi_def_cfa_register 7
 2836 0006 7860     		str	r0, [r7, #4]
 2837              		.loc 12 41 44
 2838 0008 7B68     		ldr	r3, [r7, #4]
 2839 000a 5B68     		ldr	r3, [r3, #4]
 2840 000c 9BB2     		uxth	r3, r3
 2841              		.loc 12 41 50
 2842 000e 1800     		movs	r0, r3
 2843 0010 BD46     		mov	sp, r7
 2844 0012 02B0     		add	sp, sp, #8
 2845              		@ sp needed
 2846 0014 80BD     		pop	{r7, pc}
 2847              		.cfi_endproc
 2848              	.LFE2246:
 2850              		.section	.text._ZNSt14_Function_baseC2Ev,"axG",%progbits,_ZNSt14_Function_baseC5Ev,comdat
 2851              		.align	1
 2852              		.weak	_ZNSt14_Function_baseC2Ev
 2853              		.syntax unified
 2854              		.code	16
 2855              		.thumb_func
 2856              		.fpu softvfp
 2858              	_ZNSt14_Function_baseC2Ev:
 2859              	.LFB2541:
 2860              		.file 13 "/usr/include/newlib/c++/9.2.1/bits/std_function.h"
   1:/usr/include/newlib/c++/9.2.1/bits/std_function.h **** // Implementation of std::function -*- C++ -*-
   2:/usr/include/newlib/c++/9.2.1/bits/std_function.h **** 
   3:/usr/include/newlib/c++/9.2.1/bits/std_function.h **** // Copyright (C) 2004-2019 Free Software Foundation, Inc.
   4:/usr/include/newlib/c++/9.2.1/bits/std_function.h **** //
   5:/usr/include/newlib/c++/9.2.1/bits/std_function.h **** // This file is part of the GNU ISO C++ Library.  This library is free
   6:/usr/include/newlib/c++/9.2.1/bits/std_function.h **** // software; you can redistribute it and/or modify it under the
